(imatplotlib.font_manager
FontManager
p1
(dp2
S'afm_lookup_cache'
p3
(dp4
sS'ttflist'
p5
(lp6
ccopy_reg
_reconstructor
p7
(cmatplotlib.font_manager
FontEntry
p8
c__builtin__
object
p9
NtRp10
(dp11
S'style'
p12
S'normal'
p13
sS'name'
p14
S'cmb10'
p15
sS'weight'
p16
I400
sS'stretch'
p17
g13
sS'variant'
p18
g13
sS'fname'
p19
S'/usr/share/matplotlib/mpl-data/fonts/ttf/cmb10.ttf'
p20
sS'size'
p21
S'scalable'
p22
sbag7
(g8
g9
NtRp23
(dp24
g12
g13
sg14
S'cmex10'
p25
sg16
I400
sg17
g13
sg18
g13
sg19
S'/usr/share/matplotlib/mpl-data/fonts/ttf/cmex10.ttf'
p26
sg21
g22
sbag7
(g8
g9
NtRp27
(dp28
g12
S'italic'
p29
sg14
S'STIXNonUnicode'
p30
sg16
I400
sg17
g13
sg18
g13
sg19
S'/usr/share/matplotlib/mpl-data/fonts/ttf/STIXNonUniIta.ttf'
p31
sg21
g22
sbag7
(g8
g9
NtRp32
(dp33
g12
g13
sg14
S'STIXNonUnicode'
p34
sg16
I400
sg17
g13
sg18
g13
sg19
S'/usr/share/matplotlib/mpl-data/fonts/ttf/STIXNonUni.ttf'
p35
sg21
g22
sbag7
(g8
g9
NtRp36
(dp37
g12
g13
sg14
S'STIXSizeThreeSym'
p38
sg16
I400
sg17
g13
sg18
g13
sg19
S'/usr/share/matplotlib/mpl-data/fonts/ttf/STIXSizThreeSymReg.ttf'
p39
sg21
g22
sbag7
(g8
g9
NtRp40
(dp41
g12
g13
sg14
S'STIXSizeTwoSym'
p42
sg16
I700
sg17
g13
sg18
g13
sg19
S'/usr/share/matplotlib/mpl-data/fonts/ttf/STIXSizTwoSymBol.ttf'
p43
sg21
g22
sbag7
(g8
g9
NtRp44
(dp45
g12
g13
sg14
S'cmtt10'
p46
sg16
I400
sg17
g13
sg18
g13
sg19
S'/usr/share/matplotlib/mpl-data/fonts/ttf/cmtt10.ttf'
p47
sg21
g22
sbag7
(g8
g9
NtRp48
(dp49
g12
g13
sg14
S'STIXGeneral'
p50
sg16
I400
sg17
g13
sg18
g13
sg19
S'/usr/share/matplotlib/mpl-data/fonts/ttf/STIXGeneral.ttf'
p51
sg21
g22
sbag7
(g8
g9
NtRp52
(dp53
g12
g29
sg14
S'STIXNonUnicode'
p54
sg16
I700
sg17
g13
sg18
g13
sg19
S'/usr/share/matplotlib/mpl-data/fonts/ttf/STIXNonUniBolIta.ttf'
p55
sg21
g22
sbag7
(g8
g9
NtRp56
(dp57
g12
g13
sg14
S'STIXSizeFiveSym'
p58
sg16
I400
sg17
g13
sg18
g13
sg19
S'/usr/share/matplotlib/mpl-data/fonts/ttf/STIXSizFiveSymReg.ttf'
p59
sg21
g22
sbag7
(g8
g9
NtRp60
(dp61
g12
g13
sg14
S'STIXSizeOneSym'
p62
sg16
I700
sg17
g13
sg18
g13
sg19
S'/usr/share/matplotlib/mpl-data/fonts/ttf/STIXSizOneSymBol.ttf'
p63
sg21
g22
sbag7
(g8
g9
NtRp64
(dp65
g12
g13
sg14
S'STIXGeneral'
p66
sg16
I700
sg17
g13
sg18
g13
sg19
S'/usr/share/matplotlib/mpl-data/fonts/ttf/STIXGeneralBol.ttf'
p67
sg21
g22
sbag7
(g8
g9
NtRp68
(dp69
g12
g13
sg14
S'cmr10'
p70
sg16
I400
sg17
g13
sg18
g13
sg19
S'/usr/share/matplotlib/mpl-data/fonts/ttf/cmr10.ttf'
p71
sg21
g22
sbag7
(g8
g9
NtRp72
(dp73
g12
g13
sg14
S'STIXSizeTwoSym'
p74
sg16
I400
sg17
g13
sg18
g13
sg19
S'/usr/share/matplotlib/mpl-data/fonts/ttf/STIXSizTwoSymReg.ttf'
p75
sg21
g22
sbag7
(g8
g9
NtRp76
(dp77
g12
g13
sg14
S'STIXSizeFourSym'
p78
sg16
I400
sg17
g13
sg18
g13
sg19
S'/usr/share/matplotlib/mpl-data/fonts/ttf/STIXSizFourSymReg.ttf'
p79
sg21
g22
sbag7
(g8
g9
NtRp80
(dp81
g12
g13
sg14
S'cmsy10'
p82
sg16
I400
sg17
g13
sg18
g13
sg19
S'/usr/share/matplotlib/mpl-data/fonts/ttf/cmsy10.ttf'
p83
sg21
g22
sbag7
(g8
g9
NtRp84
(dp85
g12
g13
sg14
S'STIXSizeThreeSym'
p86
sg16
I700
sg17
g13
sg18
g13
sg19
S'/usr/share/matplotlib/mpl-data/fonts/ttf/STIXSizThreeSymBol.ttf'
p87
sg21
g22
sbag7
(g8
g9
NtRp88
(dp89
g12
g13
sg14
S'cmss10'
p90
sg16
I400
sg17
g13
sg18
g13
sg19
S'/usr/share/matplotlib/mpl-data/fonts/ttf/cmss10.ttf'
p91
sg21
g22
sbag7
(g8
g9
NtRp92
(dp93
g12
g13
sg14
S'STIXSizeFourSym'
p94
sg16
I700
sg17
g13
sg18
g13
sg19
S'/usr/share/matplotlib/mpl-data/fonts/ttf/STIXSizFourSymBol.ttf'
p95
sg21
g22
sbag7
(g8
g9
NtRp96
(dp97
g12
g29
sg14
S'STIXGeneral'
p98
sg16
I400
sg17
g13
sg18
g13
sg19
S'/usr/share/matplotlib/mpl-data/fonts/ttf/STIXGeneralItalic.ttf'
p99
sg21
g22
sbag7
(g8
g9
NtRp100
(dp101
g12
g13
sg14
S'STIXSizeOneSym'
p102
sg16
I400
sg17
g13
sg18
g13
sg19
S'/usr/share/matplotlib/mpl-data/fonts/ttf/STIXSizOneSymReg.ttf'
p103
sg21
g22
sbag7
(g8
g9
NtRp104
(dp105
g12
g13
sg14
S'cmmi10'
p106
sg16
I400
sg17
g13
sg18
g13
sg19
S'/usr/share/matplotlib/mpl-data/fonts/ttf/cmmi10.ttf'
p107
sg21
g22
sbag7
(g8
g9
NtRp108
(dp109
g12
g13
sg14
S'STIXNonUnicode'
p110
sg16
I700
sg17
g13
sg18
g13
sg19
S'/usr/share/matplotlib/mpl-data/fonts/ttf/STIXNonUniBol.ttf'
p111
sg21
g22
sbag7
(g8
g9
NtRp112
(dp113
g12
g29
sg14
S'STIXGeneral'
p114
sg16
I700
sg17
g13
sg18
g13
sg19
S'/usr/share/matplotlib/mpl-data/fonts/ttf/STIXGeneralBolIta.ttf'
p115
sg21
g22
sbag7
(g8
g9
NtRp116
(dp117
g12
g13
sg14
S'msbm10'
p118
sg16
I400
sg17
g13
sg18
g13
sg19
S'/usr/share/fonts/truetype/lyx/msbm10.ttf'
p119
sg21
g22
sbag7
(g8
g9
NtRp120
(dp121
g12
g13
sg14
S'DejaVu Sans'
p122
sg16
I200
sg17
g13
sg18
g13
sg19
S'/usr/share/fonts/truetype/dejavu/DejaVuSans-ExtraLight.ttf'
p123
sg21
g22
sbag7
(g8
g9
NtRp124
(dp125
g12
g29
sg14
S'DejaVu Serif'
p126
sg16
I400
sg17
g13
sg18
g13
sg19
S'/usr/share/fonts/truetype/dejavu/DejaVuSerif-Italic.ttf'
p127
sg21
g22
sbag7
(g8
g9
NtRp128
(dp129
g12
S'oblique'
p130
sg14
S'DejaVu Sans Mono'
p131
sg16
I400
sg17
g13
sg18
g13
sg19
S'/usr/share/fonts/truetype/dejavu/DejaVuSansMono-Oblique.ttf'
p132
sg21
g22
sbag7
(g8
g9
NtRp133
(dp134
g12
g13
sg14
S'wasy10'
p135
sg16
I400
sg17
g13
sg18
g13
sg19
S'/usr/share/fonts/truetype/lyx/wasy10.ttf'
p136
sg21
g22
sbag7
(g8
g9
NtRp137
(dp138
g12
g13
sg14
S'DejaVu Sans'
p139
sg16
I400
sg17
g13
sg18
g13
sg19
S'/usr/share/fonts/truetype/dejavu/DejaVuSans.ttf'
p140
sg21
g22
sbag7
(g8
g9
NtRp141
(dp142
g12
g29
sg14
S'DejaVu Serif'
p143
sg16
I700
sg17
S'condensed'
p144
sg18
g13
sg19
S'/usr/share/fonts/truetype/dejavu/DejaVuSerifCondensed-BoldItalic.ttf'
p145
sg21
g22
sbag7
(g8
g9
NtRp146
(dp147
g12
g13
sg14
S'DejaVu Serif'
p148
sg16
I400
sg17
g144
sg18
g13
sg19
S'/usr/share/fonts/truetype/dejavu/DejaVuSerifCondensed.ttf'
p149
sg21
g22
sbag7
(g8
g9
NtRp150
(dp151
g12
g13
sg14
S'DejaVu Sans'
p152
sg16
I400
sg17
g144
sg18
g13
sg19
S'/usr/share/fonts/truetype/dejavu/DejaVuSansCondensed.ttf'
p153
sg21
g22
sbag7
(g8
g9
NtRp154
(dp155
g12
g13
sg14
S'DejaVu Sans Mono'
p156
sg16
I400
sg17
g13
sg18
g13
sg19
S'/usr/share/fonts/truetype/dejavu/DejaVuSansMono.ttf'
p157
sg21
g22
sbag7
(g8
g9
NtRp158
(dp159
g12
g13
sg14
S'eufm10'
p160
sg16
I400
sg17
g13
sg18
g13
sg19
S'/usr/share/fonts/truetype/lyx/eufm10.ttf'
p161
sg21
g22
sbag7
(g8
g9
NtRp162
(dp163
g12
g13
sg14
S'esint10'
p164
sg16
I400
sg17
g13
sg18
g13
sg19
S'/usr/share/fonts/truetype/lyx/esint10.ttf'
p165
sg21
g22
sbag7
(g8
g9
NtRp166
(dp167
g12
g130
sg14
S'DejaVu Sans'
p168
sg16
I400
sg17
g13
sg18
g13
sg19
S'/usr/share/fonts/truetype/dejavu/DejaVuSans-Oblique.ttf'
p169
sg21
g22
sbag7
(g8
g9
NtRp170
(dp171
g12
g130
sg14
S'DejaVu Sans'
p172
sg16
I700
sg17
g144
sg18
g13
sg19
S'/usr/share/fonts/truetype/dejavu/DejaVuSansCondensed-BoldOblique.ttf'
p173
sg21
g22
sbag7
(g8
g9
NtRp174
(dp175
g12
g13
sg14
S'msam10'
p176
sg16
I400
sg17
g13
sg18
g13
sg19
S'/usr/share/fonts/truetype/lyx/msam10.ttf'
p177
sg21
g22
sbag7
(g8
g9
NtRp178
(dp179
g12
g13
sg14
S'DejaVu Serif'
p180
sg16
I400
sg17
g13
sg18
g13
sg19
S'/usr/share/fonts/truetype/dejavu/DejaVuSerif.ttf'
p181
sg21
g22
sbag7
(g8
g9
NtRp182
(dp183
g12
g13
sg14
S'DejaVu Sans'
p184
sg16
I700
sg17
g13
sg18
g13
sg19
S'/usr/share/fonts/truetype/dejavu/DejaVuSans-Bold.ttf'
p185
sg21
g22
sbag7
(g8
g9
NtRp186
(dp187
g12
g29
sg14
S'DejaVu Serif'
p188
sg16
I700
sg17
g13
sg18
g13
sg19
S'/usr/share/fonts/truetype/dejavu/DejaVuSerif-BoldItalic.ttf'
p189
sg21
g22
sbag7
(g8
g9
NtRp190
(dp191
g12
g13
sg14
S'DejaVu Serif'
p192
sg16
I700
sg17
g13
sg18
g13
sg19
S'/usr/share/fonts/truetype/dejavu/DejaVuSerif-Bold.ttf'
p193
sg21
g22
sbag7
(g8
g9
NtRp194
(dp195
g12
g13
sg14
S'DejaVu Sans Mono'
p196
sg16
I700
sg17
g13
sg18
g13
sg19
S'/usr/share/fonts/truetype/dejavu/DejaVuSansMono-Bold.ttf'
p197
sg21
g22
sbag7
(g8
g9
NtRp198
(dp199
g12
g13
sg14
S'Menlo for Powerline'
p200
sg16
I400
sg17
g13
sg18
g13
sg19
S'/home/npinto/.fonts/Menlo-Powerline.otf'
p201
sg21
g22
sbag7
(g8
g9
NtRp202
(dp203
g12
g13
sg14
S'DejaVu Serif'
p204
sg16
I700
sg17
g144
sg18
g13
sg19
S'/usr/share/fonts/truetype/dejavu/DejaVuSerifCondensed-Bold.ttf'
p205
sg21
g22
sbag7
(g8
g9
NtRp206
(dp207
g12
g130
sg14
S'DejaVu Sans Mono'
p208
sg16
I700
sg17
g13
sg18
g13
sg19
S'/usr/share/fonts/truetype/dejavu/DejaVuSansMono-BoldOblique.ttf'
p209
sg21
g22
sbag7
(g8
g9
NtRp210
(dp211
g12
g29
sg14
S'rsfs10'
p212
sg16
I400
sg17
g13
sg18
g13
sg19
S'/usr/share/fonts/truetype/lyx/rsfs10.ttf'
p213
sg21
g22
sbag7
(g8
g9
NtRp214
(dp215
g12
g130
sg14
S'DejaVu Sans'
p216
sg16
I400
sg17
g144
sg18
g13
sg19
S'/usr/share/fonts/truetype/dejavu/DejaVuSansCondensed-Oblique.ttf'
p217
sg21
g22
sbag7
(g8
g9
NtRp218
(dp219
g12
g130
sg14
S'DejaVu Sans'
p220
sg16
I700
sg17
g13
sg18
g13
sg19
S'/usr/share/fonts/truetype/dejavu/DejaVuSans-BoldOblique.ttf'
p221
sg21
g22
sbag7
(g8
g9
NtRp222
(dp223
g12
g13
sg14
S'DejaVu Sans'
p224
sg16
I700
sg17
g144
sg18
g13
sg19
S'/usr/share/fonts/truetype/dejavu/DejaVuSansCondensed-Bold.ttf'
p225
sg21
g22
sbag7
(g8
g9
NtRp226
(dp227
g12
g29
sg14
S'DejaVu Serif'
p228
sg16
I400
sg17
g144
sg18
g13
sg19
S'/usr/share/fonts/truetype/dejavu/DejaVuSerifCondensed-Italic.ttf'
p229
sg21
g22
sbag7
(g8
g9
NtRp230
(dp231
g12
g13
sg14
S'Monaco for Powerline'
p232
sg16
I400
sg17
g13
sg18
g13
sg19
S'/home/npinto/.fonts/Monaco_Linux-Powerline.ttf'
p233
sg21
g22
sbasS'defaultFamily'
p234
(dp235
S'afm'
p236
S'Helvetica'
p237
sS'ttf'
p238
S'Bitstream Vera Sans'
p239
ssS'ttffiles'
p240
(lp241
S'/usr/share/matplotlib/mpl-data/fonts/ttf/cmb10.ttf'
p242
aS'/usr/share/matplotlib/mpl-data/fonts/ttf/cmex10.ttf'
p243
aS'/usr/share/matplotlib/mpl-data/fonts/ttf/STIXNonUniIta.ttf'
p244
aS'/usr/share/matplotlib/mpl-data/fonts/ttf/STIXNonUni.ttf'
p245
aS'/usr/share/matplotlib/mpl-data/fonts/ttf/STIXSizThreeSymReg.ttf'
p246
aS'/usr/share/matplotlib/mpl-data/fonts/ttf/STIXSizTwoSymBol.ttf'
p247
aS'/usr/share/matplotlib/mpl-data/fonts/ttf/cmtt10.ttf'
p248
aS'/usr/share/matplotlib/mpl-data/fonts/ttf/STIXGeneral.ttf'
p249
aS'/usr/share/matplotlib/mpl-data/fonts/ttf/STIXNonUniBolIta.ttf'
p250
aS'/usr/share/matplotlib/mpl-data/fonts/ttf/STIXSizFiveSymReg.ttf'
p251
aS'/usr/share/matplotlib/mpl-data/fonts/ttf/STIXSizOneSymBol.ttf'
p252
aS'/usr/share/matplotlib/mpl-data/fonts/ttf/STIXGeneralBol.ttf'
p253
aS'/usr/share/matplotlib/mpl-data/fonts/ttf/cmr10.ttf'
p254
aS'/usr/share/matplotlib/mpl-data/fonts/ttf/STIXSizTwoSymReg.ttf'
p255
aS'/usr/share/matplotlib/mpl-data/fonts/ttf/STIXSizFourSymReg.ttf'
p256
aS'/usr/share/matplotlib/mpl-data/fonts/ttf/cmsy10.ttf'
p257
aS'/usr/share/matplotlib/mpl-data/fonts/ttf/STIXSizThreeSymBol.ttf'
p258
aS'/usr/share/matplotlib/mpl-data/fonts/ttf/cmss10.ttf'
p259
aS'/usr/share/matplotlib/mpl-data/fonts/ttf/STIXSizFourSymBol.ttf'
p260
aS'/usr/share/matplotlib/mpl-data/fonts/ttf/STIXGeneralItalic.ttf'
p261
aS'/usr/share/matplotlib/mpl-data/fonts/ttf/STIXSizOneSymReg.ttf'
p262
aS'/usr/share/matplotlib/mpl-data/fonts/ttf/cmmi10.ttf'
p263
aS'/usr/share/matplotlib/mpl-data/fonts/ttf/STIXNonUniBol.ttf'
p264
aS'/usr/share/matplotlib/mpl-data/fonts/ttf/STIXGeneralBolIta.ttf'
p265
aS'/usr/share/fonts/truetype/lyx/msbm10.ttf'
p266
aS'/usr/share/fonts/truetype/dejavu/DejaVuSans-ExtraLight.ttf'
p267
aS'/usr/share/fonts/truetype/dejavu/DejaVuSerif-Italic.ttf'
p268
aS'/usr/share/fonts/truetype/lyx/cmr10.ttf'
p269
aS'/usr/share/fonts/truetype/dejavu/DejaVuSansMono-Oblique.ttf'
p270
aS'/usr/share/fonts/truetype/lyx/wasy10.ttf'
p271
aS'/usr/share/fonts/truetype/dejavu/DejaVuSans.ttf'
p272
aS'/usr/share/fonts/truetype/dejavu/DejaVuSerifCondensed-BoldItalic.ttf'
p273
aS'/usr/share/fonts/truetype/dejavu/DejaVuSerifCondensed.ttf'
p274
aS'/usr/share/fonts/truetype/dejavu/DejaVuSansCondensed.ttf'
p275
aS'/usr/share/fonts/truetype/dejavu/DejaVuSansMono.ttf'
p276
aS'/usr/share/fonts/truetype/lyx/eufm10.ttf'
p277
aS'/usr/share/fonts/truetype/lyx/esint10.ttf'
p278
aS'/usr/share/fonts/truetype/dejavu/DejaVuSans-Oblique.ttf'
p279
aS'/usr/share/fonts/truetype/dejavu/DejaVuSansCondensed-BoldOblique.ttf'
p280
aS'/usr/share/fonts/truetype/lyx/cmsy10.ttf'
p281
aS'/usr/share/fonts/truetype/lyx/msam10.ttf'
p282
aS'/usr/share/fonts/truetype/dejavu/DejaVuSerif.ttf'
p283
aS'/usr/share/fonts/truetype/dejavu/DejaVuSans-Bold.ttf'
p284
aS'/usr/share/fonts/truetype/dejavu/DejaVuSerif-BoldItalic.ttf'
p285
aS'/usr/share/fonts/truetype/lyx/cmmi10.ttf'
p286
aS'/usr/share/fonts/truetype/dejavu/DejaVuSerif-Bold.ttf'
p287
aS'/usr/share/fonts/truetype/lyx/cmex10.ttf'
p288
aS'/usr/share/fonts/truetype/dejavu/DejaVuSansMono-Bold.ttf'
p289
aS'/home/npinto/.fonts/Menlo-Powerline.otf'
p290
aS'/usr/share/fonts/truetype/dejavu/DejaVuSerifCondensed-Bold.ttf'
p291
aS'/usr/share/fonts/truetype/dejavu/DejaVuSansMono-BoldOblique.ttf'
p292
aS'/usr/share/fonts/truetype/lyx/rsfs10.ttf'
p293
aS'/usr/share/fonts/truetype/dejavu/DejaVuSansCondensed-Oblique.ttf'
p294
aS'/usr/share/fonts/truetype/dejavu/DejaVuSans-BoldOblique.ttf'
p295
aS'/usr/share/fonts/truetype/dejavu/DejaVuSansCondensed-Bold.ttf'
p296
aS'/usr/share/fonts/truetype/dejavu/DejaVuSerifCondensed-Italic.ttf'
p297
aS'/home/npinto/.fonts/Monaco_Linux-Powerline.ttf'
p298
asS'_FontManager__default_weight'
p299
g13
sS'_version'
p300
I101
sS'ttf_lookup_cache'
p301
(dp302
sS'default_size'
p303
NsS'defaultFont'
p304
(dp305
g236
S'/usr/share/matplotlib/mpl-data/fonts/afm/pagko8a.afm'
p306
sg238
g242
ssS'afmfiles'
p307
(lp308
g306
aS'/usr/share/matplotlib/mpl-data/fonts/afm/phvbo8an.afm'
p309
aS'/usr/share/matplotlib/mpl-data/fonts/afm/phvl8a.afm'
p310
aS'/usr/share/matplotlib/mpl-data/fonts/afm/putbi8a.afm'
p311
aS'/usr/share/matplotlib/mpl-data/fonts/pdfcorefonts/Helvetica-BoldOblique.afm'
p312
aS'/usr/share/matplotlib/mpl-data/fonts/afm/phvro8an.afm'
p313
aS'/usr/share/matplotlib/mpl-data/fonts/afm/pbkd8a.afm'
p314
aS'/usr/share/matplotlib/mpl-data/fonts/afm/pcrbo8a.afm'
p315
aS'/usr/share/matplotlib/mpl-data/fonts/pdfcorefonts/Helvetica-Bold.afm'
p316
aS'/usr/share/matplotlib/mpl-data/fonts/afm/pzcmi8a.afm'
p317
aS'/usr/share/matplotlib/mpl-data/fonts/pdfcorefonts/Times-BoldItalic.afm'
p318
aS'/usr/share/matplotlib/mpl-data/fonts/afm/putr8a.afm'
p319
aS'/usr/share/matplotlib/mpl-data/fonts/afm/pagdo8a.afm'
p320
aS'/usr/share/matplotlib/mpl-data/fonts/afm/pcrr8a.afm'
p321
aS'/usr/share/matplotlib/mpl-data/fonts/afm/pncb8a.afm'
p322
aS'/usr/share/matplotlib/mpl-data/fonts/pdfcorefonts/Courier-Bold.afm'
p323
aS'/usr/share/matplotlib/mpl-data/fonts/afm/pcrro8a.afm'
p324
aS'/usr/share/matplotlib/mpl-data/fonts/afm/cmex10.afm'
p325
aS'/usr/share/matplotlib/mpl-data/fonts/afm/cmtt10.afm'
p326
aS'/usr/share/matplotlib/mpl-data/fonts/pdfcorefonts/Symbol.afm'
p327
aS'/usr/share/matplotlib/mpl-data/fonts/afm/phvr8an.afm'
p328
aS'/usr/share/matplotlib/mpl-data/fonts/afm/phvro8a.afm'
p329
aS'/usr/share/matplotlib/mpl-data/fonts/afm/ptmr8a.afm'
p330
aS'/usr/share/matplotlib/mpl-data/fonts/pdfcorefonts/Helvetica-Oblique.afm'
p331
aS'/usr/share/matplotlib/mpl-data/fonts/afm/pplbi8a.afm'
p332
aS'/usr/share/matplotlib/mpl-data/fonts/afm/phvb8an.afm'
p333
aS'/usr/share/matplotlib/mpl-data/fonts/afm/cmsy10.afm'
p334
aS'/usr/share/matplotlib/mpl-data/fonts/afm/pagk8a.afm'
p335
aS'/usr/share/matplotlib/mpl-data/fonts/pdfcorefonts/Courier-BoldOblique.afm'
p336
aS'/usr/share/matplotlib/mpl-data/fonts/afm/putb8a.afm'
p337
aS'/usr/share/matplotlib/mpl-data/fonts/afm/cmmi10.afm'
p338
aS'/usr/share/matplotlib/mpl-data/fonts/afm/pplb8a.afm'
p339
aS'/usr/share/matplotlib/mpl-data/fonts/afm/pbkdi8a.afm'
p340
aS'/usr/share/matplotlib/mpl-data/fonts/afm/phvbo8a.afm'
p341
aS'/usr/share/matplotlib/mpl-data/fonts/afm/cmr10.afm'
p342
aS'/usr/share/matplotlib/mpl-data/fonts/pdfcorefonts/Times-Bold.afm'
p343
aS'/usr/share/matplotlib/mpl-data/fonts/afm/ptmb8a.afm'
p344
aS'/usr/share/matplotlib/mpl-data/fonts/afm/phvlo8a.afm'
p345
aS'/usr/share/matplotlib/mpl-data/fonts/afm/phvb8a.afm'
p346
aS'/usr/share/matplotlib/mpl-data/fonts/afm/pzdr.afm'
p347
aS'/usr/share/matplotlib/mpl-data/fonts/afm/ptmri8a.afm'
p348
aS'/usr/share/matplotlib/mpl-data/fonts/afm/pplr8a.afm'
p349
aS'/usr/share/matplotlib/mpl-data/fonts/afm/pbkl8a.afm'
p350
aS'/usr/share/matplotlib/mpl-data/fonts/afm/pncbi8a.afm'
p351
aS'/usr/share/matplotlib/mpl-data/fonts/pdfcorefonts/ZapfDingbats.afm'
p352
aS'/usr/share/matplotlib/mpl-data/fonts/afm/psyr.afm'
p353
aS'/usr/share/matplotlib/mpl-data/fonts/pdfcorefonts/Helvetica.afm'
p354
aS'/usr/share/matplotlib/mpl-data/fonts/afm/pplri8a.afm'
p355
aS'/usr/share/matplotlib/mpl-data/fonts/afm/ptmbi8a.afm'
p356
aS'/usr/share/matplotlib/mpl-data/fonts/afm/pbkli8a.afm'
p357
aS'/usr/share/matplotlib/mpl-data/fonts/pdfcorefonts/Courier-Oblique.afm'
p358
aS'/usr/share/matplotlib/mpl-data/fonts/afm/pcrb8a.afm'
p359
aS'/usr/share/matplotlib/mpl-data/fonts/afm/pagd8a.afm'
p360
aS'/usr/share/matplotlib/mpl-data/fonts/afm/pncr8a.afm'
p361
aS'/usr/share/matplotlib/mpl-data/fonts/pdfcorefonts/Times-Italic.afm'
p362
aS'/usr/share/matplotlib/mpl-data/fonts/pdfcorefonts/Times-Roman.afm'
p363
aS'/usr/share/matplotlib/mpl-data/fonts/afm/putri8a.afm'
p364
aS'/usr/share/matplotlib/mpl-data/fonts/pdfcorefonts/Courier.afm'
p365
aS'/usr/share/matplotlib/mpl-data/fonts/afm/phvr8a.afm'
p366
aS'/usr/share/matplotlib/mpl-data/fonts/afm/pncri8a.afm'
p367
aS'/usr/share/fonts/type1/gsfonts/n021024l.afm'
p368
aS'/usr/share/fonts/type1/gsfonts/s050000l.afm'
p369
aS'/usr/share/fonts/type1/gsfonts/n021004l.afm'
p370
aS'/usr/share/fonts/type1/gsfonts/n019024l.afm'
p371
aS'/usr/share/fonts/type1/gsfonts/p052024l.afm'
p372
aS'/usr/share/fonts/type1/gsfonts/p052004l.afm'
p373
aS'/usr/share/fonts/type1/gsfonts/n019064l.afm'
p374
aS'/usr/share/fonts/type1/gsfonts/n022003l.afm'
p375
aS'/usr/share/fonts/type1/gsfonts/n019063l.afm'
p376
aS'/usr/share/fonts/type1/gsfonts/a010033l.afm'
p377
aS'/usr/share/fonts/type1/gsfonts/n019044l.afm'
p378
aS'/usr/share/fonts/type1/gsfonts/z003034l.afm'
p379
aS'/usr/share/fonts/type1/gsfonts/n022024l.afm'
p380
aS'/usr/share/fonts/type1/gsfonts/n019043l.afm'
p381
aS'/usr/share/fonts/type1/gsfonts/b018012l.afm'
p382
aS'/usr/share/fonts/type1/gsfonts/n019003l.afm'
p383
aS'/usr/share/fonts/type1/gsfonts/d050000l.afm'
p384
aS'/usr/share/fonts/type1/gsfonts/b018035l.afm'
p385
aS'/usr/share/fonts/type1/gsfonts/a010013l.afm'
p386
aS'/usr/share/fonts/type1/gsfonts/c059036l.afm'
p387
aS'/usr/share/fonts/type1/gsfonts/n022004l.afm'
p388
aS'/usr/share/fonts/type1/gsfonts/n021003l.afm'
p389
aS'/usr/share/fonts/type1/gsfonts/c059033l.afm'
p390
aS'/usr/share/fonts/type1/gsfonts/n019023l.afm'
p391
aS'/usr/share/fonts/type1/gsfonts/p052023l.afm'
p392
aS'/usr/share/fonts/type1/gsfonts/n019004l.afm'
p393
aS'/usr/share/fonts/type1/gsfonts/p052003l.afm'
p394
aS'/usr/share/fonts/type1/gsfonts/a010015l.afm'
p395
aS'/usr/share/fonts/type1/gsfonts/c059013l.afm'
p396
aS'/usr/share/fonts/type1/gsfonts/b018032l.afm'
p397
aS'/usr/share/fonts/type1/gsfonts/c059016l.afm'
p398
aS'/usr/share/fonts/type1/gsfonts/n022023l.afm'
p399
aS'/usr/share/fonts/type1/gsfonts/n021023l.afm'
p400
aS'/usr/share/fonts/type1/gsfonts/a010035l.afm'
p401
aS'/usr/share/fonts/type1/gsfonts/b018015l.afm'
p402
asS'afmlist'
p403
(lp404
g7
(g8
g9
NtRp405
(dp406
g12
g29
sg14
S'ITC Avant Garde Gothic'
p407
sg16
I400
sg17
g13
sg18
g13
sg19
g306
sg21
g22
sbag7
(g8
g9
NtRp408
(dp409
g12
g29
sg14
S'Helvetica'
p410
sg16
I700
sg17
g144
sg18
g13
sg19
g309
sg21
g22
sbag7
(g8
g9
NtRp411
(dp412
g12
g13
sg14
S'Helvetica'
p413
sg16
I200
sg17
g13
sg18
g13
sg19
g310
sg21
g22
sbag7
(g8
g9
NtRp414
(dp415
g12
g29
sg14
S'Utopia'
p416
sg16
I700
sg17
g13
sg18
g13
sg19
g311
sg21
g22
sbag7
(g8
g9
NtRp417
(dp418
g12
g29
sg14
S'Helvetica'
p419
sg16
I700
sg17
g13
sg18
g13
sg19
g312
sg21
g22
sbag7
(g8
g9
NtRp420
(dp421
g12
g29
sg14
S'Helvetica'
p422
sg16
I500
sg17
g144
sg18
g13
sg19
g313
sg21
g22
sbag7
(g8
g9
NtRp423
(dp424
g12
g13
sg14
S'ITC Bookman'
p425
sg16
I600
sg17
g13
sg18
g13
sg19
g314
sg21
g22
sbag7
(g8
g9
NtRp426
(dp427
g12
g29
sg14
S'Courier'
p428
sg16
I700
sg17
g13
sg18
g13
sg19
g315
sg21
g22
sbag7
(g8
g9
NtRp429
(dp430
g12
g13
sg14
S'Helvetica'
p431
sg16
I700
sg17
g13
sg18
g13
sg19
g316
sg21
g22
sbag7
(g8
g9
NtRp432
(dp433
g12
g29
sg14
S'ITC Zapf Chancery'
p434
sg16
I500
sg17
g13
sg18
g13
sg19
g317
sg21
g22
sbag7
(g8
g9
NtRp435
(dp436
g12
g29
sg14
S'Times'
p437
sg16
I700
sg17
g13
sg18
g13
sg19
g318
sg21
g22
sbag7
(g8
g9
NtRp438
(dp439
g12
g13
sg14
S'Utopia'
p440
sg16
I400
sg17
g13
sg18
g13
sg19
g319
sg21
g22
sbag7
(g8
g9
NtRp441
(dp442
g12
g29
sg14
S'ITC Avant Garde Gothic'
p443
sg16
I600
sg17
g13
sg18
g13
sg19
g320
sg21
g22
sbag7
(g8
g9
NtRp444
(dp445
g12
g13
sg14
S'Courier'
p446
sg16
I500
sg17
g13
sg18
g13
sg19
g321
sg21
g22
sbag7
(g8
g9
NtRp447
(dp448
g12
g13
sg14
S'New Century Schoolbook'
p449
sg16
I700
sg17
g13
sg18
g13
sg19
g322
sg21
g22
sbag7
(g8
g9
NtRp450
(dp451
g12
g13
sg14
S'Courier'
p452
sg16
I700
sg17
g13
sg18
g13
sg19
g323
sg21
g22
sbag7
(g8
g9
NtRp453
(dp454
g12
g29
sg14
S'Courier'
p455
sg16
I500
sg17
g13
sg18
g13
sg19
g324
sg21
g22
sbag7
(g8
g9
NtRp456
(dp457
g12
g13
sg14
S'Computer Modern'
p458
sg16
I500
sg17
g13
sg18
g13
sg19
g325
sg21
g22
sbag7
(g8
g9
NtRp459
(dp460
g12
g13
sg14
S'Computer Modern'
p461
sg16
I500
sg17
g13
sg18
g13
sg19
g326
sg21
g22
sbag7
(g8
g9
NtRp462
(dp463
g12
g13
sg14
S'Symbol'
p464
sg16
I500
sg17
g13
sg18
g13
sg19
g327
sg21
g22
sbag7
(g8
g9
NtRp465
(dp466
g12
g13
sg14
S'Helvetica'
p467
sg16
I500
sg17
g144
sg18
g13
sg19
g328
sg21
g22
sbag7
(g8
g9
NtRp468
(dp469
g12
g29
sg14
S'Helvetica'
p470
sg16
I500
sg17
g13
sg18
g13
sg19
g329
sg21
g22
sbag7
(g8
g9
NtRp471
(dp472
g12
g13
sg14
S'Times'
p473
sg16
I500
sg17
g13
sg18
g13
sg19
g330
sg21
g22
sbag7
(g8
g9
NtRp474
(dp475
g12
g29
sg14
S'Helvetica'
p476
sg16
I500
sg17
g13
sg18
g13
sg19
g331
sg21
g22
sbag7
(g8
g9
NtRp477
(dp478
g12
g29
sg14
S'Palatino'
p479
sg16
I700
sg17
g13
sg18
g13
sg19
g332
sg21
g22
sbag7
(g8
g9
NtRp480
(dp481
g12
g13
sg14
S'Helvetica'
p482
sg16
I700
sg17
g144
sg18
g13
sg19
g333
sg21
g22
sbag7
(g8
g9
NtRp483
(dp484
g12
g29
sg14
S'Computer Modern'
p485
sg16
I500
sg17
g13
sg18
g13
sg19
g334
sg21
g22
sbag7
(g8
g9
NtRp486
(dp487
g12
g13
sg14
S'ITC Avant Garde Gothic'
p488
sg16
I400
sg17
g13
sg18
g13
sg19
g335
sg21
g22
sbag7
(g8
g9
NtRp489
(dp490
g12
g29
sg14
S'Courier'
p491
sg16
I700
sg17
g13
sg18
g13
sg19
g336
sg21
g22
sbag7
(g8
g9
NtRp492
(dp493
g12
g13
sg14
S'Utopia'
p494
sg16
I700
sg17
g13
sg18
g13
sg19
g337
sg21
g22
sbag7
(g8
g9
NtRp495
(dp496
g12
g29
sg14
S'Computer Modern'
p497
sg16
I500
sg17
g13
sg18
g13
sg19
g338
sg21
g22
sbag7
(g8
g9
NtRp498
(dp499
g12
g13
sg14
S'Palatino'
p500
sg16
I700
sg17
g13
sg18
g13
sg19
g339
sg21
g22
sbag7
(g8
g9
NtRp501
(dp502
g12
g29
sg14
S'ITC Bookman'
p503
sg16
I600
sg17
g13
sg18
g13
sg19
g340
sg21
g22
sbag7
(g8
g9
NtRp504
(dp505
g12
g29
sg14
S'Helvetica'
p506
sg16
I700
sg17
g13
sg18
g13
sg19
g341
sg21
g22
sbag7
(g8
g9
NtRp507
(dp508
g12
g13
sg14
S'Computer Modern'
p509
sg16
I500
sg17
g13
sg18
g13
sg19
g342
sg21
g22
sbag7
(g8
g9
NtRp510
(dp511
g12
g13
sg14
S'Times'
p512
sg16
I700
sg17
g13
sg18
g13
sg19
g343
sg21
g22
sbag7
(g8
g9
NtRp513
(dp514
g12
g13
sg14
S'Times'
p515
sg16
I700
sg17
g13
sg18
g13
sg19
g344
sg21
g22
sbag7
(g8
g9
NtRp516
(dp517
g12
g29
sg14
S'Helvetica'
p518
sg16
I200
sg17
g13
sg18
g13
sg19
g345
sg21
g22
sbag7
(g8
g9
NtRp519
(dp520
g12
g13
sg14
S'Helvetica'
p521
sg16
I700
sg17
g13
sg18
g13
sg19
g346
sg21
g22
sbag7
(g8
g9
NtRp522
(dp523
g12
g13
sg14
S'ITC Zapf Dingbats'
p524
sg16
I500
sg17
g13
sg18
g13
sg19
g347
sg21
g22
sbag7
(g8
g9
NtRp525
(dp526
g12
g29
sg14
S'Times'
p527
sg16
I500
sg17
g13
sg18
g13
sg19
g348
sg21
g22
sbag7
(g8
g9
NtRp528
(dp529
g12
g13
sg14
S'Palatino'
p530
sg16
I500
sg17
g13
sg18
g13
sg19
g349
sg21
g22
sbag7
(g8
g9
NtRp531
(dp532
g12
g13
sg14
S'ITC Bookman'
p533
sg16
I200
sg17
g13
sg18
g13
sg19
g350
sg21
g22
sbag7
(g8
g9
NtRp534
(dp535
g12
g29
sg14
S'New Century Schoolbook'
p536
sg16
I700
sg17
g13
sg18
g13
sg19
g351
sg21
g22
sbag7
(g8
g9
NtRp537
(dp538
g12
g13
sg14
S'ZapfDingbats'
p539
sg16
I500
sg17
g13
sg18
g13
sg19
g352
sg21
g22
sbag7
(g8
g9
NtRp540
(dp541
g12
g13
sg14
S'Symbol'
p542
sg16
I500
sg17
g13
sg18
g13
sg19
g353
sg21
g22
sbag7
(g8
g9
NtRp543
(dp544
g12
g13
sg14
S'Helvetica'
p545
sg16
I500
sg17
g13
sg18
g13
sg19
g354
sg21
g22
sbag7
(g8
g9
NtRp546
(dp547
g12
g29
sg14
S'Palatino'
p548
sg16
I500
sg17
g13
sg18
g13
sg19
g355
sg21
g22
sbag7
(g8
g9
NtRp549
(dp550
g12
g29
sg14
S'Times'
p551
sg16
I700
sg17
g13
sg18
g13
sg19
g356
sg21
g22
sbag7
(g8
g9
NtRp552
(dp553
g12
g29
sg14
S'ITC Bookman'
p554
sg16
I200
sg17
g13
sg18
g13
sg19
g357
sg21
g22
sbag7
(g8
g9
NtRp555
(dp556
g12
g29
sg14
S'Courier'
p557
sg16
I500
sg17
g13
sg18
g13
sg19
g358
sg21
g22
sbag7
(g8
g9
NtRp558
(dp559
g12
g13
sg14
S'Courier'
p560
sg16
I700
sg17
g13
sg18
g13
sg19
g359
sg21
g22
sbag7
(g8
g9
NtRp561
(dp562
g12
g13
sg14
S'ITC Avant Garde Gothic'
p563
sg16
I600
sg17
g13
sg18
g13
sg19
g360
sg21
g22
sbag7
(g8
g9
NtRp564
(dp565
g12
g13
sg14
S'New Century Schoolbook'
p566
sg16
I500
sg17
g13
sg18
g13
sg19
g361
sg21
g22
sbag7
(g8
g9
NtRp567
(dp568
g12
g29
sg14
S'Times'
p569
sg16
I500
sg17
g13
sg18
g13
sg19
g362
sg21
g22
sbag7
(g8
g9
NtRp570
(dp571
g12
g13
sg14
S'Times'
p572
sg16
I500
sg17
g13
sg18
g13
sg19
g363
sg21
g22
sbag7
(g8
g9
NtRp573
(dp574
g12
g29
sg14
S'Utopia'
p575
sg16
I400
sg17
g13
sg18
g13
sg19
g364
sg21
g22
sbag7
(g8
g9
NtRp576
(dp577
g12
g13
sg14
S'Courier'
p578
sg16
I500
sg17
g13
sg18
g13
sg19
g365
sg21
g22
sbag7
(g8
g9
NtRp579
(dp580
g12
g13
sg14
S'Helvetica'
p581
sg16
I500
sg17
g13
sg18
g13
sg19
g366
sg21
g22
sbag7
(g8
g9
NtRp582
(dp583
g12
g29
sg14
S'New Century Schoolbook'
p584
sg16
I500
sg17
g13
sg18
g13
sg19
g367
sg21
g22
sbag7
(g8
g9
NtRp585
(dp586
g12
g29
sg14
S'Nimbus Roman No9 L'
p587
sg16
I700
sg17
g13
sg18
g13
sg19
g368
sg21
g22
sbag7
(g8
g9
NtRp588
(dp589
g12
g13
sg14
S'Standard Symbols L'
p590
sg16
I400
sg17
g13
sg18
g13
sg19
g369
sg21
g22
sbag7
(g8
g9
NtRp591
(dp592
g12
g13
sg14
S'Nimbus Roman No9 L'
p593
sg16
I700
sg17
g13
sg18
g13
sg19
g370
sg21
g22
sbag7
(g8
g9
NtRp594
(dp595
g12
g29
sg14
S'Nimbus Sans L'
p596
sg16
I700
sg17
g13
sg18
g13
sg19
g371
sg21
g22
sbag7
(g8
g9
NtRp597
(dp598
g12
g29
sg14
S'URW Palladio L'
p599
sg16
I700
sg17
g13
sg18
g13
sg19
g372
sg21
g22
sbag7
(g8
g9
NtRp600
(dp601
g12
g13
sg14
S'URW Palladio L'
p602
sg16
I700
sg17
g13
sg18
g13
sg19
g373
sg21
g22
sbag7
(g8
g9
NtRp603
(dp604
g12
g29
sg14
S'Nimbus Sans L'
p605
sg16
I700
sg17
g144
sg18
g13
sg19
g374
sg21
g22
sbag7
(g8
g9
NtRp606
(dp607
g12
g13
sg14
S'Nimbus Mono L'
p608
sg16
I400
sg17
g13
sg18
g13
sg19
g375
sg21
g22
sbag7
(g8
g9
NtRp609
(dp610
g12
g29
sg14
S'Nimbus Sans L'
p611
sg16
I400
sg17
g144
sg18
g13
sg19
g376
sg21
g22
sbag7
(g8
g9
NtRp612
(dp613
g12
g29
sg14
S'URW Gothic L'
p614
sg16
I400
sg17
g13
sg18
g13
sg19
g377
sg21
g22
sbag7
(g8
g9
NtRp615
(dp616
g12
g13
sg14
S'Nimbus Sans L'
p617
sg16
I700
sg17
g144
sg18
g13
sg19
g378
sg21
g22
sbag7
(g8
g9
NtRp618
(dp619
g12
g29
sg14
S'URW Chancery L'
p620
sg16
I500
sg17
g13
sg18
g13
sg19
g379
sg21
g22
sbag7
(g8
g9
NtRp621
(dp622
g12
g29
sg14
S'Nimbus Mono L'
p623
sg16
I700
sg17
g13
sg18
g13
sg19
g380
sg21
g22
sbag7
(g8
g9
NtRp624
(dp625
g12
g13
sg14
S'Nimbus Sans L'
p626
sg16
I400
sg17
g144
sg18
g13
sg19
g381
sg21
g22
sbag7
(g8
g9
NtRp627
(dp628
g12
g13
sg14
S'URW Bookman L'
p629
sg16
I400
sg17
g13
sg18
g13
sg19
g382
sg21
g22
sbag7
(g8
g9
NtRp630
(dp631
g12
g13
sg14
S'Nimbus Sans L'
p632
sg16
I400
sg17
g13
sg18
g13
sg19
g383
sg21
g22
sbag7
(g8
g9
NtRp633
(dp634
g12
g13
sg14
S'Dingbats'
p635
sg16
I400
sg17
g13
sg18
g13
sg19
g384
sg21
g22
sbag7
(g8
g9
NtRp636
(dp637
g12
g29
sg14
S'URW Bookman L'
p638
sg16
I700
sg17
g13
sg18
g13
sg19
g385
sg21
g22
sbag7
(g8
g9
NtRp639
(dp640
g12
g13
sg14
S'URW Gothic L'
p641
sg16
I400
sg17
g13
sg18
g13
sg19
g386
sg21
g22
sbag7
(g8
g9
NtRp642
(dp643
g12
g29
sg14
S'Century Schoolbook L'
p644
sg16
I700
sg17
g13
sg18
g13
sg19
g387
sg21
g22
sbag7
(g8
g9
NtRp645
(dp646
g12
g13
sg14
S'Nimbus Mono L'
p647
sg16
I700
sg17
g13
sg18
g13
sg19
g388
sg21
g22
sbag7
(g8
g9
NtRp648
(dp649
g12
g13
sg14
S'Nimbus Roman No9 L'
p650
sg16
I400
sg17
g13
sg18
g13
sg19
g389
sg21
g22
sbag7
(g8
g9
NtRp651
(dp652
g12
g29
sg14
S'Century Schoolbook L'
p653
sg16
I400
sg17
g13
sg18
g13
sg19
g390
sg21
g22
sbag7
(g8
g9
NtRp654
(dp655
g12
g29
sg14
S'Nimbus Sans L'
p656
sg16
I400
sg17
g13
sg18
g13
sg19
g391
sg21
g22
sbag7
(g8
g9
NtRp657
(dp658
g12
g29
sg14
S'URW Palladio L'
p659
sg16
I400
sg17
g13
sg18
g13
sg19
g392
sg21
g22
sbag7
(g8
g9
NtRp660
(dp661
g12
g13
sg14
S'Nimbus Sans L'
p662
sg16
I700
sg17
g13
sg18
g13
sg19
g393
sg21
g22
sbag7
(g8
g9
NtRp663
(dp664
g12
g13
sg14
S'URW Palladio L'
p665
sg16
I500
sg17
g13
sg18
g13
sg19
g394
sg21
g22
sbag7
(g8
g9
NtRp666
(dp667
g12
g13
sg14
S'URW Gothic L'
p668
sg16
I600
sg17
g13
sg18
g13
sg19
g395
sg21
g22
sbag7
(g8
g9
NtRp669
(dp670
g12
g13
sg14
S'Century Schoolbook L'
p671
sg16
I500
sg17
g13
sg18
g13
sg19
g396
sg21
g22
sbag7
(g8
g9
NtRp672
(dp673
g12
g29
sg14
S'URW Bookman L'
p674
sg16
I400
sg17
g13
sg18
g13
sg19
g397
sg21
g22
sbag7
(g8
g9
NtRp675
(dp676
g12
g13
sg14
S'Century Schoolbook L'
p677
sg16
I700
sg17
g13
sg18
g13
sg19
g398
sg21
g22
sbag7
(g8
g9
NtRp678
(dp679
g12
g29
sg14
S'Nimbus Mono L'
p680
sg16
I400
sg17
g13
sg18
g13
sg19
g399
sg21
g22
sbag7
(g8
g9
NtRp681
(dp682
g12
g29
sg14
S'Nimbus Roman No9 L'
p683
sg16
I400
sg17
g13
sg18
g13
sg19
g400
sg21
g22
sbag7
(g8
g9
NtRp684
(dp685
g12
g29
sg14
S'URW Gothic L'
p686
sg16
I600
sg17
g13
sg18
g13
sg19
g401
sg21
g22
sbag7
(g8
g9
NtRp687
(dp688
g12
g13
sg14
S'URW Bookman L'
p689
sg16
I700
sg17
g13
sg18
g13
sg19
g402
sg21
g22
sbasb.