ccopy_reg
_reconstructor
p1
(cmatplotlib.font_manager
FontManager
p2
c__builtin__
object
p3
NtRp4
(dp5
S'ttflist'
p6
(lp7
g1
(cmatplotlib.font_manager
FontEntry
p8
g3
NtRp9
(dp10
S'style'
p11
Vnormal
p12
sS'name'
p13
S'Bitstream Vera Sans Mono'
p14
sS'weight'
p15
I400
sS'stretch'
p16
g12
sS'variant'
p17
g12
sS'fname'
p18
V/usr/local/lib/python2.7/site-packages/matplotlib/mpl-data/fonts/ttf/VeraMono.ttf
p19
sS'size'
p20
Vscalable
p21
sbag1
(g8
g3
NtRp22
(dp23
g11
g12
sg13
S'cmr10'
p24
sg15
I400
sg16
g12
sg17
g12
sg18
V/usr/local/lib/python2.7/site-packages/matplotlib/mpl-data/fonts/ttf/cmr10.ttf
p25
sg20
g21
sbag1
(g8
g3
NtRp26
(dp27
g11
g12
sg13
S'STIXSizeFourSym'
p28
sg15
I400
sg16
g12
sg17
g12
sg18
V/usr/local/lib/python2.7/site-packages/matplotlib/mpl-data/fonts/ttf/STIXSizFourSymReg.ttf
p29
sg20
g21
sbag1
(g8
g3
NtRp30
(dp31
g11
g12
sg13
S'STIXSizeTwoSym'
p32
sg15
I400
sg16
g12
sg17
g12
sg18
V/usr/local/lib/python2.7/site-packages/matplotlib/mpl-data/fonts/ttf/STIXSizTwoSymReg.ttf
p33
sg20
g21
sbag1
(g8
g3
NtRp34
(dp35
g11
g12
sg13
S'STIXSizeThreeSym'
p36
sg15
I700
sg16
g12
sg17
g12
sg18
V/usr/local/lib/python2.7/site-packages/matplotlib/mpl-data/fonts/ttf/STIXSizThreeSymBol.ttf
p37
sg20
g21
sbag1
(g8
g3
NtRp38
(dp39
g11
Vitalic
p40
sg13
S'STIXGeneral'
p41
sg15
I700
sg16
g12
sg17
g12
sg18
V/usr/local/lib/python2.7/site-packages/matplotlib/mpl-data/fonts/ttf/STIXGeneralBolIta.ttf
p42
sg20
g21
sbag1
(g8
g3
NtRp43
(dp44
g11
Voblique
p45
sg13
S'Bitstream Vera Sans'
p46
sg15
I700
sg16
g12
sg17
g12
sg18
V/usr/local/lib/python2.7/site-packages/matplotlib/mpl-data/fonts/ttf/VeraBI.ttf
p47
sg20
g21
sbag1
(g8
g3
NtRp48
(dp49
g11
g12
sg13
S'cmtt10'
p50
sg15
I400
sg16
g12
sg17
g12
sg18
V/usr/local/lib/python2.7/site-packages/matplotlib/mpl-data/fonts/ttf/cmtt10.ttf
p51
sg20
g21
sbag1
(g8
g3
NtRp52
(dp53
g11
g12
sg13
S'STIXSizeTwoSym'
p54
sg15
I700
sg16
g12
sg17
g12
sg18
V/usr/local/lib/python2.7/site-packages/matplotlib/mpl-data/fonts/ttf/STIXSizTwoSymBol.ttf
p55
sg20
g21
sbag1
(g8
g3
NtRp56
(dp57
g11
g12
sg13
S'STIXGeneral'
p58
sg15
I400
sg16
g12
sg17
g12
sg18
V/usr/local/lib/python2.7/site-packages/matplotlib/mpl-data/fonts/ttf/STIXGeneral.ttf
p59
sg20
g21
sbag1
(g8
g3
NtRp60
(dp61
g11
g12
sg13
S'cmmi10'
p62
sg15
I400
sg16
g12
sg17
g12
sg18
V/usr/local/lib/python2.7/site-packages/matplotlib/mpl-data/fonts/ttf/cmmi10.ttf
p63
sg20
g21
sbag1
(g8
g3
NtRp64
(dp65
g11
g12
sg13
S'STIXSizeOneSym'
p66
sg15
I700
sg16
g12
sg17
g12
sg18
V/usr/local/lib/python2.7/site-packages/matplotlib/mpl-data/fonts/ttf/STIXSizOneSymBol.ttf
p67
sg20
g21
sbag1
(g8
g3
NtRp68
(dp69
g11
g12
sg13
S'cmb10'
p70
sg15
I400
sg16
g12
sg17
g12
sg18
V/usr/local/lib/python2.7/site-packages/matplotlib/mpl-data/fonts/ttf/cmb10.ttf
p71
sg20
g21
sbag1
(g8
g3
NtRp72
(dp73
g11
g12
sg13
S'STIXSizeThreeSym'
p74
sg15
I400
sg16
g12
sg17
g12
sg18
V/usr/local/lib/python2.7/site-packages/matplotlib/mpl-data/fonts/ttf/STIXSizThreeSymReg.ttf
p75
sg20
g21
sbag1
(g8
g3
NtRp76
(dp77
g11
g12
sg13
S'STIXSizeFiveSym'
p78
sg15
I400
sg16
g12
sg17
g12
sg18
V/usr/local/lib/python2.7/site-packages/matplotlib/mpl-data/fonts/ttf/STIXSizFiveSymReg.ttf
p79
sg20
g21
sbag1
(g8
g3
NtRp80
(dp81
g11
g40
sg13
S'STIXGeneral'
p82
sg15
I400
sg16
g12
sg17
g12
sg18
V/usr/local/lib/python2.7/site-packages/matplotlib/mpl-data/fonts/ttf/STIXGeneralItalic.ttf
p83
sg20
g21
sbag1
(g8
g3
NtRp84
(dp85
g11
g12
sg13
S'Bitstream Vera Sans'
p86
sg15
I700
sg16
g12
sg17
g12
sg18
V/usr/local/lib/python2.7/site-packages/matplotlib/mpl-data/fonts/ttf/VeraBd.ttf
p87
sg20
g21
sbag1
(g8
g3
NtRp88
(dp89
g11
g12
sg13
S'cmss10'
p90
sg15
I400
sg16
g12
sg17
g12
sg18
V/usr/local/lib/python2.7/site-packages/matplotlib/mpl-data/fonts/ttf/cmss10.ttf
p91
sg20
g21
sbag1
(g8
g3
NtRp92
(dp93
g11
g12
sg13
S'Bitstream Vera Serif'
p94
sg15
I700
sg16
g12
sg17
g12
sg18
V/usr/local/lib/python2.7/site-packages/matplotlib/mpl-data/fonts/ttf/VeraSeBd.ttf
p95
sg20
g21
sbag1
(g8
g3
NtRp96
(dp97
g11
g45
sg13
S'Bitstream Vera Sans Mono'
p98
sg15
I700
sg16
g12
sg17
g12
sg18
V/usr/local/lib/python2.7/site-packages/matplotlib/mpl-data/fonts/ttf/VeraMoBI.ttf
p99
sg20
g21
sbag1
(g8
g3
NtRp100
(dp101
g11
g12
sg13
S'Bitstream Vera Sans Mono'
p102
sg15
I700
sg16
g12
sg17
g12
sg18
V/usr/local/lib/python2.7/site-packages/matplotlib/mpl-data/fonts/ttf/VeraMoBd.ttf
p103
sg20
g21
sbag1
(g8
g3
NtRp104
(dp105
g11
g45
sg13
S'Bitstream Vera Sans Mono'
p106
sg15
I400
sg16
g12
sg17
g12
sg18
V/usr/local/lib/python2.7/site-packages/matplotlib/mpl-data/fonts/ttf/VeraMoIt.ttf
p107
sg20
g21
sbag1
(g8
g3
NtRp108
(dp109
g11
g12
sg13
S'Bitstream Vera Sans'
p110
sg15
I400
sg16
g12
sg17
g12
sg18
V/usr/local/lib/python2.7/site-packages/matplotlib/mpl-data/fonts/ttf/Vera.ttf
p111
sg20
g21
sbag1
(g8
g3
NtRp112
(dp113
g11
g40
sg13
S'STIXNonUnicode'
p114
sg15
I700
sg16
g12
sg17
g12
sg18
V/usr/local/lib/python2.7/site-packages/matplotlib/mpl-data/fonts/ttf/STIXNonUniBolIta.ttf
p115
sg20
g21
sbag1
(g8
g3
NtRp116
(dp117
g11
g12
sg13
S'STIXNonUnicode'
p118
sg15
I700
sg16
g12
sg17
g12
sg18
V/usr/local/lib/python2.7/site-packages/matplotlib/mpl-data/fonts/ttf/STIXNonUniBol.ttf
p119
sg20
g21
sbag1
(g8
g3
NtRp120
(dp121
g11
g12
sg13
S'STIXSizeOneSym'
p122
sg15
I400
sg16
g12
sg17
g12
sg18
V/usr/local/lib/python2.7/site-packages/matplotlib/mpl-data/fonts/ttf/STIXSizOneSymReg.ttf
p123
sg20
g21
sbag1
(g8
g3
NtRp124
(dp125
g11
g12
sg13
S'STIXGeneral'
p126
sg15
I700
sg16
g12
sg17
g12
sg18
V/usr/local/lib/python2.7/site-packages/matplotlib/mpl-data/fonts/ttf/STIXGeneralBol.ttf
p127
sg20
g21
sbag1
(g8
g3
NtRp128
(dp129
g11
g45
sg13
S'Bitstream Vera Sans'
p130
sg15
I400
sg16
g12
sg17
g12
sg18
V/usr/local/lib/python2.7/site-packages/matplotlib/mpl-data/fonts/ttf/VeraIt.ttf
p131
sg20
g21
sbag1
(g8
g3
NtRp132
(dp133
g11
g12
sg13
S'STIXNonUnicode'
p134
sg15
I400
sg16
g12
sg17
g12
sg18
V/usr/local/lib/python2.7/site-packages/matplotlib/mpl-data/fonts/ttf/STIXNonUni.ttf
p135
sg20
g21
sbag1
(g8
g3
NtRp136
(dp137
g11
g12
sg13
S'cmex10'
p138
sg15
I400
sg16
g12
sg17
g12
sg18
V/usr/local/lib/python2.7/site-packages/matplotlib/mpl-data/fonts/ttf/cmex10.ttf
p139
sg20
g21
sbag1
(g8
g3
NtRp140
(dp141
g11
g12
sg13
S'cmsy10'
p142
sg15
I400
sg16
g12
sg17
g12
sg18
V/usr/local/lib/python2.7/site-packages/matplotlib/mpl-data/fonts/ttf/cmsy10.ttf
p143
sg20
g21
sbag1
(g8
g3
NtRp144
(dp145
g11
g40
sg13
S'STIXNonUnicode'
p146
sg15
I400
sg16
g12
sg17
g12
sg18
V/usr/local/lib/python2.7/site-packages/matplotlib/mpl-data/fonts/ttf/STIXNonUniIta.ttf
p147
sg20
g21
sbag1
(g8
g3
NtRp148
(dp149
g11
g12
sg13
S'STIXSizeFourSym'
p150
sg15
I700
sg16
g12
sg17
g12
sg18
V/usr/local/lib/python2.7/site-packages/matplotlib/mpl-data/fonts/ttf/STIXSizFourSymBol.ttf
p151
sg20
g21
sbag1
(g8
g3
NtRp152
(dp153
g11
g12
sg13
S'Bitstream Vera Serif'
p154
sg15
I400
sg16
g12
sg17
g12
sg18
V/usr/local/lib/python2.7/site-packages/matplotlib/mpl-data/fonts/ttf/VeraSe.ttf
p155
sg20
g21
sbag1
(g8
g3
NtRp156
(dp157
g11
g12
sg13
S'Serto Malankara'
p158
sg15
I400
sg16
g12
sg17
g12
sg18
V/usr/X11R6/lib/X11/fonts/OTF/SyrCOMMalankara.otf
p159
sg20
g21
sbag1
(g8
g3
NtRp160
(dp161
g11
g12
sg13
S'Serto Mardin'
p162
sg15
I700
sg16
g12
sg17
g12
sg18
V/usr/X11R6/lib/X11/fonts/OTF/SyrCOMMardinBold.otf
p163
sg20
g21
sbag1
(g8
g3
NtRp164
(dp165
g11
g40
sg13
S'Trebuchet MS'
p166
sg15
I400
sg16
g12
sg17
g12
sg18
V/Library/Fonts/Trebuchet MS Italic.ttf
p167
sg20
g21
sbag1
(g8
g3
NtRp168
(dp169
g11
g12
sg13
S'Hoefler Text'
p170
sg15
I400
sg16
g12
sg17
g12
sg18
V/Library/Fonts/Hoefler Text Ornaments.ttf
p171
sg20
g21
sbag1
(g8
g3
NtRp172
(dp173
g11
g12
sg13
S'Mshtakan'
p174
sg15
I400
sg16
g12
sg17
g12
sg18
V/Library/Fonts/MshtakanRegular.ttf
p175
sg20
g21
sbag1
(g8
g3
NtRp176
(dp177
g11
g12
sg13
S'Osaka'
p178
sg15
I400
sg16
g12
sg17
g12
sg18
V/Library/Fonts/Osaka.ttf
p179
sg20
g21
sbag1
(g8
g3
NtRp180
(dp181
g11
g45
sg13
S'Luxi Mono'
p182
sg15
I400
sg16
g12
sg17
g12
sg18
V/usr/X11/lib/X11/fonts/TTF/luximri.ttf
p183
sg20
g21
sbag1
(g8
g3
NtRp184
(dp185
g11
g12
sg13
S'Hiragino Mincho Pro'
p186
sg15
I400
sg16
g12
sg17
g12
sg18
V/Library/Fonts/\u30d2\u30e9\u30ad\u3099\u30ce\u660e\u671d Pro W3.otf
p187
sg20
g21
sbag1
(g8
g3
NtRp188
(dp189
g11
g12
sg13
S'Verdana'
p190
sg15
I700
sg16
g12
sg17
g12
sg18
V/Library/Fonts/Verdana Bold.ttf
p191
sg20
g21
sbag1
(g8
g3
NtRp192
(dp193
g11
g12
sg13
S'Apple SD Gothic Neo'
p194
sg15
I200
sg16
g12
sg17
g12
sg18
V/Library/Fonts/AppleSDGothicNeo-UltraLight.otf
p195
sg20
g21
sbag1
(g8
g3
NtRp196
(dp197
g11
g45
sg13
S'Luxi Sans'
p198
sg15
I700
sg16
g12
sg17
g12
sg18
V/opt/X11/share/fonts/TTF/luxisbi.ttf
p199
sg20
g21
sbag1
(g8
g3
NtRp200
(dp201
g11
g12
sg13
S'Arial Unicode MS'
p202
sg15
I400
sg16
g12
sg17
g12
sg18
V/Library/Fonts/Arial Unicode.ttf
p203
sg20
g21
sbag1
(g8
g3
NtRp204
(dp205
g11
g12
sg13
S'STIXSizeThreeSym'
p206
sg15
I400
sg16
g12
sg17
g12
sg18
V/Library/Fonts/STIXSizThreeSymReg.otf
p207
sg20
g21
sbag1
(g8
g3
NtRp208
(dp209
g11
g12
sg13
S'DIN Condensed'
p210
sg15
I700
sg16
Vcondensed
p211
sg17
g12
sg18
V/Library/Fonts/DIN Condensed Bold.ttf
p212
sg20
g21
sbag1
(g8
g3
NtRp213
(dp214
g11
g45
sg13
S'Luxi Sans'
p215
sg15
I400
sg16
g12
sg17
g12
sg18
V/usr/X11/lib/X11/fonts/TTF/luxisri.ttf
p216
sg20
g21
sbag1
(g8
g3
NtRp217
(dp218
g11
g12
sg13
S'Estrangelo TurAbdin'
p219
sg15
I400
sg16
g12
sg17
g12
sg18
V/usr/X11R6/lib/X11/fonts/OTF/SyrCOMTurAbdin.otf
p220
sg20
g21
sbag1
(g8
g3
NtRp221
(dp222
g11
g12
sg13
S'Estrangelo Talada'
p223
sg15
I400
sg16
g12
sg17
g12
sg18
V/usr/X11R6/lib/X11/fonts/OTF/SyrCOMTalada.otf
p224
sg20
g21
sbag1
(g8
g3
NtRp225
(dp226
g11
g12
sg13
S'Hiragino Mincho ProN'
p227
sg15
I400
sg16
g12
sg17
g12
sg18
V/System/Library/Fonts/\u30d2\u30e9\u30ad\u3099\u30ce\u660e\u671d ProN W3.otf
p228
sg20
g21
sbag1
(g8
g3
NtRp229
(dp230
g11
g12
sg13
S'Serto Kharput'
p231
sg15
I400
sg16
g12
sg17
g12
sg18
V/usr/X11R6/lib/X11/fonts/OTF/SyrCOMKharput.otf
p232
sg20
g21
sbag1
(g8
g3
NtRp233
(dp234
g11
g12
sg13
S'Times New Roman'
p235
sg15
I500
sg16
g12
sg17
g12
sg18
V/Library/Fonts/Times New Roman.ttf
p236
sg20
g21
sbag1
(g8
g3
NtRp237
(dp238
g11
g12
sg13
S'LiSong Pro'
p239
sg15
I400
sg16
g12
sg17
g12
sg18
V/Library/Fonts/\u5137\u5b8b Pro.ttf
p240
sg20
g21
sbag1
(g8
g3
NtRp241
(dp242
g11
g12
sg13
S'Apple SD Gothic Neo'
p243
sg15
I800
sg16
g12
sg17
g12
sg18
V/Library/Fonts/AppleSDGothicNeo-Heavy.otf
p244
sg20
g21
sbag1
(g8
g3
NtRp245
(dp246
g11
g12
sg13
S'Arial'
p247
sg15
I400
sg16
g12
sg17
g12
sg18
V/Library/Fonts/Arial.ttf
p248
sg20
g21
sbag1
(g8
g3
NtRp249
(dp250
g11
g12
sg13
S'AppleGothic'
p251
sg15
I400
sg16
g12
sg17
g12
sg18
V/Library/Fonts/AppleGothic.ttf
p252
sg20
g21
sbag1
(g8
g3
NtRp253
(dp254
g11
g12
sg13
S'Serto Jerusalem'
p255
sg15
I700
sg16
g12
sg17
g12
sg18
V/usr/X11R6/lib/X11/fonts/OTF/SyrCOMJerusalemBold.otf
p256
sg20
g21
sbag1
(g8
g3
NtRp257
(dp258
g11
g12
sg13
S'YuGothic'
p259
sg15
I400
sg16
g12
sg17
g12
sg18
V/Library/Fonts/Yu Gothic Medium.otf
p260
sg20
g21
sbag1
(g8
g3
NtRp261
(dp262
g11
g12
sg13
S'Gujarati MT'
p263
sg15
I700
sg16
g12
sg17
g12
sg18
V/Library/Fonts/GujaratiMTBold.ttf
p264
sg20
g21
sbag1
(g8
g3
NtRp265
(dp266
g11
g45
sg13
S'Luxi Serif'
p267
sg15
I400
sg16
g12
sg17
g12
sg18
V/opt/X11/share/fonts/TTF/luxirri.ttf
p268
sg20
g21
sbag1
(g8
g3
NtRp269
(dp270
g11
g12
sg13
S'Arial Narrow'
p271
sg15
I400
sg16
g211
sg17
g12
sg18
V/Library/Fonts/Arial Narrow.ttf
p272
sg20
g21
sbag1
(g8
g3
NtRp273
(dp274
g11
g12
sg13
S'Apple SD Gothic Neo'
p275
sg15
I700
sg16
g12
sg17
g12
sg18
V/System/Library/Fonts/AppleSDGothicNeo-Bold.otf
p276
sg20
g21
sbag1
(g8
g3
NtRp277
(dp278
g11
g12
sg13
S'Hiragino Maru Gothic ProN'
p279
sg15
I400
sg16
g12
sg17
g12
sg18
V/Library/Fonts/\u30d2\u30e9\u30ad\u3099\u30ce\u4e38\u30b3\u3099 ProN W4.otf
p280
sg20
g21
sbag1
(g8
g3
NtRp281
(dp282
g11
g45
sg13
S'Mshtakan'
p283
sg15
I400
sg16
g12
sg17
g12
sg18
V/Library/Fonts/MshtakanOblique.ttf
p284
sg20
g21
sbag1
(g8
g3
NtRp285
(dp286
g11
g45
sg13
S'Luxi Mono'
p287
sg15
I700
sg16
g12
sg17
g12
sg18
V/opt/X11/share/fonts/TTF/luximbi.ttf
p288
sg20
g21
sbag1
(g8
g3
NtRp289
(dp290
g11
g40
sg13
S'Serto Jerusalem'
p291
sg15
I400
sg16
g12
sg17
g12
sg18
V/opt/X11/share/fonts/OTF/SyrCOMJerusalemItalic.otf
p292
sg20
g21
sbag1
(g8
g3
NtRp293
(dp294
g11
g12
sg13
S'Hiragino Mincho Pro'
p295
sg15
I700
sg16
g12
sg17
g12
sg18
V/Library/Fonts/\u30d2\u30e9\u30ad\u3099\u30ce\u660e\u671d Pro W6.otf
p296
sg20
g21
sbag1
(g8
g3
NtRp297
(dp298
g11
g12
sg13
S'East Syriac Adiabene'
p299
sg15
I400
sg16
g12
sg17
g12
sg18
V/opt/X11/share/fonts/OTF/SyrCOMAdiabene.otf
p300
sg20
g21
sbag1
(g8
g3
NtRp301
(dp302
g11
g12
sg13
S'AppleMyungjo'
p303
sg15
I400
sg16
g12
sg17
g12
sg18
V/Library/Fonts/AppleMyungjo.ttf
p304
sg20
g21
sbag1
(g8
g3
NtRp305
(dp306
g11
g12
sg13
S'Mishafi Gold'
p307
sg15
I400
sg16
g12
sg17
g12
sg18
V/Library/Fonts/Mishafi Gold.ttf
p308
sg20
g21
sbag1
(g8
g3
NtRp309
(dp310
g11
g12
sg13
S'Serto Jerusalem Outline'
p311
sg15
I400
sg16
g12
sg17
g12
sg18
V/usr/X11/lib/X11/fonts/OTF/SyrCOMJerusalemOutline.otf
p312
sg20
g21
sbag1
(g8
g3
NtRp313
(dp314
g11
g12
sg13
S'Zapf Dingbats'
p315
sg15
I400
sg16
g12
sg17
g12
sg18
V/System/Library/Fonts/ZapfDingbats.ttf
p316
sg20
g21
sbag1
(g8
g3
NtRp317
(dp318
g11
g12
sg13
S'STIXIntegralsD'
p319
sg15
I700
sg16
g12
sg17
g12
sg18
V/Library/Fonts/STIXIntDBol.otf
p320
sg20
g21
sbag1
(g8
g3
NtRp321
(dp322
g11
g12
sg13
S'DIN Alternate'
p323
sg15
I700
sg16
g12
sg17
g12
sg18
V/Library/Fonts/DIN Alternate Bold.ttf
p324
sg20
g21
sbag1
(g8
g3
NtRp325
(dp326
g11
g12
sg13
S'Myanmar Sangam MN'
p327
sg15
I400
sg16
g12
sg17
g12
sg18
V/Library/Fonts/Myanmar Sangam MN.ttf
p328
sg20
g21
sbag1
(g8
g3
NtRp329
(dp330
g11
g12
sg13
S'STIXSizeThreeSym'
p331
sg15
I700
sg16
g12
sg17
g12
sg18
V/Library/Fonts/STIXSizThreeSymBol.otf
p332
sg20
g21
sbag1
(g8
g3
NtRp333
(dp334
g11
g12
sg13
S'Courier New'
p335
sg15
I400
sg16
g12
sg17
g12
sg18
V/Library/Fonts/Courier New.ttf
p336
sg20
g21
sbag1
(g8
g3
NtRp337
(dp338
g11
g40
sg13
S'Arial Narrow'
p339
sg15
I700
sg16
g211
sg17
g12
sg18
V/Library/Fonts/Arial Narrow Bold Italic.ttf
p340
sg20
g21
sbag1
(g8
g3
NtRp341
(dp342
g11
g12
sg13
S'Serto Jerusalem'
p343
sg15
I400
sg16
g12
sg17
g12
sg18
V/usr/X11/lib/X11/fonts/OTF/SyrCOMJerusalem.otf
p344
sg20
g21
sbag1
(g8
g3
NtRp345
(dp346
g11
g12
sg13
S'Luminari'
p347
sg15
I400
sg16
g12
sg17
g12
sg18
V/Library/Fonts/Luminari.ttf
p348
sg20
g21
sbag1
(g8
g3
NtRp349
(dp350
g11
g12
sg13
S'Zapfino'
p351
sg15
I400
sg16
g12
sg17
g12
sg18
V/Library/Fonts/Zapfino.ttf
p352
sg20
g21
sbag1
(g8
g3
NtRp353
(dp354
g11
g12
sg13
S'Arial Narrow'
p355
sg15
I700
sg16
g211
sg17
g12
sg18
V/Library/Fonts/Arial Narrow Bold.ttf
p356
sg20
g21
sbag1
(g8
g3
NtRp357
(dp358
g11
g40
sg13
S'Times New Roman'
p359
sg15
I500
sg16
g12
sg17
g12
sg18
V/Library/Fonts/Times New Roman Italic.ttf
p360
sg20
g21
sbag1
(g8
g3
NtRp361
(dp362
g11
g12
sg13
S'Krungthep'
p363
sg15
I400
sg16
g12
sg17
g12
sg18
V/Library/Fonts/Krungthep.ttf
p364
sg20
g21
sbag1
(g8
g3
NtRp365
(dp366
g11
g12
sg13
S'Apple SD Gothic Neo'
p367
sg15
I700
sg16
g12
sg17
g12
sg18
V/Library/Fonts/AppleSDGothicNeo-ExtraBold.otf
p368
sg20
g21
sbag1
(g8
g3
NtRp369
(dp370
g11
g12
sg13
S'Serto Batnan'
p371
sg15
I400
sg16
g12
sg17
g12
sg18
V/usr/X11R6/lib/X11/fonts/OTF/SyrCOMBatnan.otf
p372
sg20
g21
sbag1
(g8
g3
NtRp373
(dp374
g11
g12
sg13
S'Georgia'
p375
sg15
I400
sg16
g12
sg17
g12
sg18
V/Library/Fonts/Georgia.ttf
p376
sg20
g21
sbag1
(g8
g3
NtRp377
(dp378
g11
g12
sg13
S'STIXIntegralsSm'
p379
sg15
I700
sg16
g12
sg17
g12
sg18
V/Library/Fonts/STIXIntSmBol.otf
p380
sg20
g21
sbag1
(g8
g3
NtRp381
(dp382
g11
g12
sg13
S'Diwan Thuluth'
p383
sg15
I400
sg16
g12
sg17
g12
sg18
V/Library/Fonts/Diwan Thuluth.ttf
p384
sg20
g21
sbag1
(g8
g3
NtRp385
(dp386
g11
g12
sg13
S'Trebuchet MS'
p387
sg15
I700
sg16
g12
sg17
g12
sg18
V/Library/Fonts/Trebuchet MS Bold.ttf
p388
sg20
g21
sbag1
(g8
g3
NtRp389
(dp390
g11
g12
sg13
S'Luxi Sans'
p391
sg15
I400
sg16
g12
sg17
g12
sg18
V/opt/X11/share/fonts/TTF/luxisr.ttf
p392
sg20
g21
sbag1
(g8
g3
NtRp393
(dp394
g11
g12
sg13
S'Bradley Hand'
p395
sg15
I700
sg16
g12
sg17
g12
sg18
V/Library/Fonts/Bradley Hand Bold.ttf
p396
sg20
g21
sbag1
(g8
g3
NtRp397
(dp398
g11
g12
sg13
S'Estrangelo Quenneshrin'
p399
sg15
I400
sg16
g12
sg17
g12
sg18
V/opt/X11/share/fonts/OTF/SyrCOMQenNeshrin.otf
p400
sg20
g21
sbag1
(g8
g3
NtRp401
(dp402
g11
g40
sg13
S'Times New Roman'
p403
sg15
I700
sg16
g12
sg17
g12
sg18
V/Library/Fonts/Times New Roman Bold Italic.ttf
p404
sg20
g21
sbag1
(g8
g3
NtRp405
(dp406
g11
g12
sg13
S'East Syriac Ctesiphon'
p407
sg15
I400
sg16
g12
sg17
g12
sg18
V/usr/X11R6/lib/X11/fonts/OTF/SyrCOMCtesiphon.otf
p408
sg20
g21
sbag1
(g8
g3
NtRp409
(dp410
g11
g40
sg13
S'Arial Narrow'
p411
sg15
I400
sg16
g211
sg17
g12
sg18
V/Library/Fonts/Arial Narrow Italic.ttf
p412
sg20
g21
sbag1
(g8
g3
NtRp413
(dp414
g11
g12
sg13
S'Hiragino Kaku Gothic Pro'
p415
sg15
I700
sg16
g12
sg17
g12
sg18
V/Library/Fonts/\u30d2\u30e9\u30ad\u3099\u30ce\u89d2\u30b3\u3099 Pro W6.otf
p416
sg20
g21
sbag1
(g8
g3
NtRp417
(dp418
g11
g12
sg13
S'Hiragino Maru Gothic Pro'
p419
sg15
I400
sg16
g12
sg17
g12
sg18
V/Library/Fonts/\u30d2\u30e9\u30ad\u3099\u30ce\u4e38\u30b3\u3099 Pro W4.otf
p420
sg20
g21
sbag1
(g8
g3
NtRp421
(dp422
g11
g12
sg13
S'Apple SD Gothic Neo'
p423
sg15
I400
sg16
g12
sg17
g12
sg18
V/System/Library/Fonts/AppleSDGothicNeo-Regular.otf
p424
sg20
g21
sbag1
(g8
g3
NtRp425
(dp426
g11
g12
sg13
S'PilGi'
p427
sg15
I400
sg16
g12
sg17
g12
sg18
V/Library/Fonts/Pilgiche.ttf
p428
sg20
g21
sbag1
(g8
g3
NtRp429
(dp430
g11
g12
sg13
S'Estrangelo Midyat'
p431
sg15
I400
sg16
g12
sg17
g12
sg18
V/usr/X11/lib/X11/fonts/OTF/SyrCOMMidyat.otf
p432
sg20
g21
sbag1
(g8
g3
NtRp433
(dp434
g11
g12
sg13
S'Apple Braille'
p435
sg15
I400
sg16
g12
sg17
g12
sg18
V/System/Library/Fonts/Apple Braille Outline 8 Dot.ttf
p436
sg20
g21
sbag1
(g8
g3
NtRp437
(dp438
g11
g12
sg13
S'Estrangelo Edessa'
p439
sg15
I400
sg16
g12
sg17
g12
sg18
V/opt/X11/share/fonts/OTF/SyrCOMEdessa.otf
p440
sg20
g21
sbag1
(g8
g3
NtRp441
(dp442
g11
g12
sg13
S'Luxi Serif'
p443
sg15
I700
sg16
g12
sg17
g12
sg18
V/opt/X11/share/fonts/TTF/luxirb.ttf
p444
sg20
g21
sbag1
(g8
g3
NtRp445
(dp446
g11
g12
sg13
S'Plantagenet Cherokee'
p447
sg15
I400
sg16
g12
sg17
g12
sg18
V/Library/Fonts/PlantagenetCherokee.ttf
p448
sg20
g21
sbag1
(g8
g3
NtRp449
(dp450
g11
g12
sg13
S'Luxi Serif'
p451
sg15
I400
sg16
g12
sg17
g12
sg18
V/usr/X11R6/lib/X11/fonts/TTF/luxirr.ttf
p452
sg20
g21
sbag1
(g8
g3
NtRp453
(dp454
g11
g12
sg13
S'Times New Roman'
p455
sg15
I700
sg16
g12
sg17
g12
sg18
V/Library/Fonts/Times New Roman Bold.ttf
p456
sg20
g21
sbag1
(g8
g3
NtRp457
(dp458
g11
g12
sg13
S'Serto Urhoy'
p459
sg15
I700
sg16
g12
sg17
g12
sg18
V/usr/X11/lib/X11/fonts/OTF/SyrCOMUrhoyBold.otf
p460
sg20
g21
sbag1
(g8
g3
NtRp461
(dp462
g11
g40
sg13
S'Arial'
p463
sg15
I700
sg16
g12
sg17
g12
sg18
V/Library/Fonts/Arial Bold Italic.ttf
p464
sg20
g21
sbag1
(g8
g3
NtRp465
(dp466
g11
g12
sg13
S'Goha-Tibeb Zemen'
p467
sg15
I400
sg16
g12
sg17
g12
sg18
V/usr/X11/lib/X11/fonts/TTF/GohaTibebZemen.ttf
p468
sg20
g21
sbag1
(g8
g3
NtRp469
(dp470
g11
g12
sg13
S'Monaco for Powerline'
p471
sg15
I400
sg16
g12
sg17
g12
sg18
V/Users/npinto/.fonts/Monaco_Linux-Powerline.ttf
p472
sg20
g21
sbag1
(g8
g3
NtRp473
(dp474
g11
g12
sg13
S'HeadLineA'
p475
sg15
I400
sg16
g12
sg17
g12
sg18
V/Library/Fonts/HeadlineA.ttf
p476
sg20
g21
sbag1
(g8
g3
NtRp477
(dp478
g11
g12
sg13
S'Hiragino Kaku Gothic Pro'
p479
sg15
I400
sg16
g12
sg17
g12
sg18
V/Library/Fonts/\u30d2\u30e9\u30ad\u3099\u30ce\u89d2\u30b3\u3099 Pro W3.otf
p480
sg20
g21
sbag1
(g8
g3
NtRp481
(dp482
g11
g12
sg13
S'STIXVariants'
p483
sg15
I400
sg16
g12
sg17
g12
sg18
V/Library/Fonts/STIXVar.otf
p484
sg20
g21
sbag1
(g8
g3
NtRp485
(dp486
g11
g12
sg13
S'Mishafi'
p487
sg15
I400
sg16
g12
sg17
g12
sg18
V/Library/Fonts/Mishafi.ttf
p488
sg20
g21
sbag1
(g8
g3
NtRp489
(dp490
g11
g12
sg13
S'STIXVariants'
p491
sg15
I700
sg16
g12
sg17
g12
sg18
V/Library/Fonts/STIXVarBol.otf
p492
sg20
g21
sbag1
(g8
g3
NtRp493
(dp494
g11
g45
sg13
S'Luxi Serif'
p495
sg15
I700
sg16
g12
sg17
g12
sg18
V/opt/X11/share/fonts/TTF/luxirbi.ttf
p496
sg20
g21
sbag1
(g8
g3
NtRp497
(dp498
g11
g12
sg13
S'Hiragino Sans GB'
p499
sg15
I400
sg16
g12
sg17
g12
sg18
V/Library/Fonts/Hiragino Sans GB W3.otf
p500
sg20
g21
sbag1
(g8
g3
NtRp501
(dp502
g11
g12
sg13
S'STFangsong'
p503
sg15
I400
sg16
g12
sg17
g12
sg18
V/Library/Fonts/\u534e\u6587\u4eff\u5b8b.ttf
p504
sg20
g21
sbag1
(g8
g3
NtRp505
(dp506
g11
g12
sg13
S'Mshtakan'
p507
sg15
I700
sg16
g12
sg17
g12
sg18
V/Library/Fonts/MshtakanBold.ttf
p508
sg20
g21
sbag1
(g8
g3
NtRp509
(dp510
g11
g12
sg13
S'Serto Urhoy'
p511
sg15
I400
sg16
g12
sg17
g12
sg18
V/opt/X11/share/fonts/OTF/SyrCOMUrhoy.otf
p512
sg20
g21
sbag1
(g8
g3
NtRp513
(dp514
g11
g12
sg13
S'STHeiti'
p515
sg15
I400
sg16
g12
sg17
g12
sg18
V/Library/Fonts/\u534e\u6587\u9ed1\u4f53.ttf
p516
sg20
g21
sbag1
(g8
g3
NtRp517
(dp518
g11
g12
sg13
S'STIXIntegralsUp'
p519
sg15
I700
sg16
g12
sg17
g12
sg18
V/Library/Fonts/STIXIntUpBol.otf
p520
sg20
g21
sbag1
(g8
g3
NtRp521
(dp522
g11
g12
sg13
S'Wawati TC'
p523
sg15
I400
sg16
g12
sg17
g12
sg18
V/Library/Fonts/WawaTC-Regular.otf
p524
sg20
g21
sbag1
(g8
g3
NtRp525
(dp526
g11
g12
sg13
S'Skia'
p527
sg15
I400
sg16
g12
sg17
g12
sg18
V/Library/Fonts/Skia.ttf
p528
sg20
g21
sbag1
(g8
g3
NtRp529
(dp530
g11
g12
sg13
S'Estrangelo Nisibin'
p531
sg15
I400
sg16
g12
sg17
g12
sg18
V/opt/X11/share/fonts/OTF/SyrCOMNisibin.otf
p532
sg20
g21
sbag1
(g8
g3
NtRp533
(dp534
g11
g12
sg13
S'STIXSizeFiveSym'
p535
sg15
I400
sg16
g12
sg17
g12
sg18
V/Library/Fonts/STIXSizFiveSymReg.otf
p536
sg20
g21
sbag1
(g8
g3
NtRp537
(dp538
g11
g12
sg13
S'Verdana'
p539
sg15
I400
sg16
g12
sg17
g12
sg18
V/Library/Fonts/Verdana.ttf
p540
sg20
g21
sbag1
(g8
g3
NtRp541
(dp542
g11
g12
sg13
S'Farisi'
p543
sg15
I400
sg16
g12
sg17
g12
sg18
V/Library/Fonts/Farisi.ttf
p544
sg20
g21
sbag1
(g8
g3
NtRp545
(dp546
g11
g12
sg13
S'Luxi Sans'
p547
sg15
I700
sg16
g12
sg17
g12
sg18
V/usr/X11/lib/X11/fonts/TTF/luxisb.ttf
p548
sg20
g21
sbag1
(g8
g3
NtRp549
(dp550
g11
g12
sg13
S'Estrangelo Nisibin Outline'
p551
sg15
I400
sg16
g12
sg17
g12
sg18
V/opt/X11/share/fonts/OTF/SyrCOMNisibinOutline.otf
p552
sg20
g21
sbag1
(g8
g3
NtRp553
(dp554
g11
g12
sg13
S'Luxi Mono'
p555
sg15
I400
sg16
g12
sg17
g12
sg18
V/opt/X11/share/fonts/TTF/luximr.ttf
p556
sg20
g21
sbag1
(g8
g3
NtRp557
(dp558
g11
g12
sg13
S'Gurmukhi MT'
p559
sg15
I400
sg16
g12
sg17
g12
sg18
V/Library/Fonts/Gurmukhi.ttf
p560
sg20
g21
sbag1
(g8
g3
NtRp561
(dp562
g11
g12
sg13
S'Bodoni 72 Smallcaps'
p563
sg15
I400
sg16
g12
sg17
g12
sg18
V/Library/Fonts/Bodoni 72 Smallcaps Book.ttf
p564
sg20
g21
sbag1
(g8
g3
NtRp565
(dp566
g11
g12
sg13
S'YuGothic'
p567
sg15
I700
sg16
g12
sg17
g12
sg18
V/Library/Fonts/Yu Gothic Bold.otf
p568
sg20
g21
sbag1
(g8
g3
NtRp569
(dp570
g11
g12
sg13
S'YuMincho'
p571
sg15
I700
sg16
g12
sg17
g12
sg18
V/Library/Fonts/Yu Mincho Demibold.otf
p572
sg20
g21
sbag1
(g8
g3
NtRp573
(dp574
g11
g12
sg13
S'Serto Mardin'
p575
sg15
I400
sg16
g12
sg17
g12
sg18
V/opt/X11/share/fonts/OTF/SyrCOMMardin.otf
p576
sg20
g21
sbag1
(g8
g3
NtRp577
(dp578
g11
g40
sg13
S'Arial'
p579
sg15
I400
sg16
g12
sg17
g12
sg18
V/Library/Fonts/Arial Italic.ttf
p580
sg20
g21
sbag1
(g8
g3
NtRp581
(dp582
g11
g12
sg13
S'Goha-Tibeb Zemen'
p583
sg15
I400
sg16
g12
sg17
g12
sg18
V/usr/X11R6/lib/X11/fonts/OTF/GohaTibebZemen.otf
p584
sg20
g21
sbag1
(g8
g3
NtRp585
(dp586
g11
g40
sg13
S'STIXNonUnicode'
p587
sg15
I700
sg16
g12
sg17
g12
sg18
V/Library/Fonts/STIXNonUniBolIta.otf
p588
sg20
g21
sbag1
(g8
g3
NtRp589
(dp590
g11
g12
sg13
S'Apple Braille'
p591
sg15
I400
sg16
g12
sg17
g12
sg18
V/System/Library/Fonts/Apple Braille Pinpoint 8 Dot.ttf
p592
sg20
g21
sbag1
(g8
g3
NtRp593
(dp594
g11
g40
sg13
S'Georgia'
p595
sg15
I400
sg16
g12
sg17
g12
sg18
V/Library/Fonts/Georgia Italic.ttf
p596
sg20
g21
sbag1
(g8
g3
NtRp597
(dp598
g11
g12
sg13
S'Apple Braille'
p599
sg15
I400
sg16
g12
sg17
g12
sg18
V/System/Library/Fonts/Apple Braille Outline 6 Dot.ttf
p600
sg20
g21
sbag1
(g8
g3
NtRp601
(dp602
g11
g12
sg13
S'Chalkduster'
p603
sg15
I400
sg16
g12
sg17
g12
sg18
V/Library/Fonts/Chalkduster.ttf
p604
sg20
g21
sbag1
(g8
g3
NtRp605
(dp606
g11
g40
sg13
S'Courier New'
p607
sg15
I700
sg16
g12
sg17
g12
sg18
V/Library/Fonts/Courier New Bold Italic.ttf
p608
sg20
g21
sbag1
(g8
g3
NtRp609
(dp610
g11
g12
sg13
S'Wawati SC'
p611
sg15
I400
sg16
g12
sg17
g12
sg18
V/Library/Fonts/WawaSC-Regular.otf
p612
sg20
g21
sbag1
(g8
g3
NtRp613
(dp614
g11
g12
sg13
S'Arial Rounded MT Bold'
p615
sg15
I700
sg16
g12
sg17
g12
sg18
V/Library/Fonts/Arial Rounded Bold.ttf
p616
sg20
g21
sbag1
(g8
g3
NtRp617
(dp618
g11
g12
sg13
S'Hiragino Kaku Gothic Std'
p619
sg15
I700
sg16
g12
sg17
g12
sg18
V/Library/Fonts/\u30d2\u30e9\u30ad\u3099\u30ce\u89d2\u30b3\u3099 Std W8.otf
p620
sg20
g21
sbag1
(g8
g3
NtRp621
(dp622
g11
g12
sg13
S'Luxi Mono'
p623
sg15
I700
sg16
g12
sg17
g12
sg18
V/opt/X11/share/fonts/TTF/luximb.ttf
p624
sg20
g21
sbag1
(g8
g3
NtRp625
(dp626
g11
g12
sg13
S'.Hiragino Kaku Gothic Interface'
p627
sg15
I400
sg16
g12
sg17
g12
sg18
V/System/Library/Fonts/HiraKakuInterface-W1.otf
p628
sg20
g21
sbag1
(g8
g3
NtRp629
(dp630
g11
g12
sg13
S'Hiragino Kaku Gothic ProN'
p631
sg15
I700
sg16
g12
sg17
g12
sg18
V/System/Library/Fonts/\u30d2\u30e9\u30ad\u3099\u30ce\u89d2\u30b3\u3099 ProN W6.otf
p632
sg20
g21
sbag1
(g8
g3
NtRp633
(dp634
g11
g12
sg13
S'PCMyungjo'
p635
sg15
I400
sg16
g12
sg17
g12
sg18
V/Library/Fonts/PCmyoungjo.ttf
p636
sg20
g21
sbag1
(g8
g3
NtRp637
(dp638
g11
g12
sg13
S'LastResort'
p639
sg15
I400
sg16
g12
sg17
g12
sg18
V/System/Library/Fonts/LastResort.ttf
p640
sg20
g21
sbag1
(g8
g3
NtRp641
(dp642
g11
g12
sg13
S'Apple SD Gothic Neo'
p643
sg15
I200
sg16
g12
sg17
g12
sg18
V/Library/Fonts/AppleSDGothicNeo-Light.otf
p644
sg20
g21
sbag1
(g8
g3
NtRp645
(dp646
g11
g40
sg13
S'Verdana'
p647
sg15
I700
sg16
g12
sg17
g12
sg18
V/Library/Fonts/Verdana Bold Italic.ttf
p648
sg20
g21
sbag1
(g8
g3
NtRp649
(dp650
g11
g12
sg13
S'LiHei Pro'
p651
sg15
I400
sg16
g12
sg17
g12
sg18
V/Library/Fonts/\u5137\u9ed1 Pro.ttf
p652
sg20
g21
sbag1
(g8
g3
NtRp653
(dp654
g11
g12
sg13
S'Hiragino Sans GB'
p655
sg15
I700
sg16
g12
sg17
g12
sg18
V/Library/Fonts/Hiragino Sans GB W6.otf
p656
sg20
g21
sbag1
(g8
g3
NtRp657
(dp658
g11
g12
sg13
S'Kailasa'
p659
sg15
I400
sg16
g12
sg17
g12
sg18
V/Library/Fonts/Kailasa.ttf
p660
sg20
g21
sbag1
(g8
g3
NtRp661
(dp662
g11
g12
sg13
S'STIXIntegralsSm'
p663
sg15
I400
sg16
g12
sg17
g12
sg18
V/Library/Fonts/STIXIntSmReg.otf
p664
sg20
g21
sbag1
(g8
g3
NtRp665
(dp666
g11
g12
sg13
S'Apple SD Gothic Neo'
p667
sg15
I400
sg16
g12
sg17
g12
sg18
V/Library/Fonts/AppleSDGothicNeo-Thin.otf
p668
sg20
g21
sbag1
(g8
g3
NtRp669
(dp670
g11
g12
sg13
S'Kokonor'
p671
sg15
I400
sg16
g12
sg17
g12
sg18
V/Library/Fonts/Kokonor.ttf
p672
sg20
g21
sbag1
(g8
g3
NtRp673
(dp674
g11
g12
sg13
S'Serto Batnan'
p675
sg15
I700
sg16
g12
sg17
g12
sg18
V/opt/X11/share/fonts/OTF/SyrCOMBatnanBold.otf
p676
sg20
g21
sbag1
(g8
g3
NtRp677
(dp678
g11
g40
sg13
S'Verdana'
p679
sg15
I400
sg16
g12
sg17
g12
sg18
V/Library/Fonts/Verdana Italic.ttf
p680
sg20
g21
sbag1
(g8
g3
NtRp681
(dp682
g11
g12
sg13
S'STIXGeneral'
p683
sg15
I700
sg16
g12
sg17
g12
sg18
V/Library/Fonts/STIXGeneralBol.otf
p684
sg20
g21
sbag1
(g8
g3
NtRp685
(dp686
g11
g12
sg13
S'Apple Braille'
p687
sg15
I400
sg16
g12
sg17
g12
sg18
V/System/Library/Fonts/Apple Braille.ttf
p688
sg20
g21
sbag1
(g8
g3
NtRp689
(dp690
g11
g12
sg13
S'Estrangelo Antioch'
p691
sg15
I400
sg16
g12
sg17
g12
sg18
V/opt/X11/share/fonts/OTF/SyrCOMAntioch.otf
p692
sg20
g21
sbag1
(g8
g3
NtRp693
(dp694
g11
g12
sg13
S'InaiMathi'
p695
sg15
I400
sg16
g12
sg17
g12
sg18
V/Library/Fonts/InaiMathi.ttf
p696
sg20
g21
sbag1
(g8
g3
NtRp697
(dp698
g11
g12
sg13
S'Weibei TC'
p699
sg15
I700
sg16
g12
sg17
g12
sg18
V/Library/Fonts/WeibeiTC-Bold.otf
p700
sg20
g21
sbag1
(g8
g3
NtRp701
(dp702
g11
g12
sg13
S'STIXNonUnicode'
p703
sg15
I400
sg16
g12
sg17
g12
sg18
V/Library/Fonts/STIXNonUni.otf
p704
sg20
g21
sbag1
(g8
g3
NtRp705
(dp706
g11
g12
sg13
S'Osaka'
p707
sg15
I400
sg16
g12
sg17
g12
sg18
V/Library/Fonts/OsakaMono.ttf
p708
sg20
g21
sbag1
(g8
g3
NtRp709
(dp710
g11
g40
sg13
S'STIXNonUnicode'
p711
sg15
I400
sg16
g12
sg17
g12
sg18
V/Library/Fonts/STIXNonUniIta.otf
p712
sg20
g21
sbag1
(g8
g3
NtRp713
(dp714
g11
g12
sg13
S'STIXIntegralsUp'
p715
sg15
I400
sg16
g12
sg17
g12
sg18
V/Library/Fonts/STIXIntUpReg.otf
p716
sg20
g21
sbag1
(g8
g3
NtRp717
(dp718
g11
g12
sg13
S'Yuppy SC'
p719
sg15
I400
sg16
g12
sg17
g12
sg18
V/Library/Fonts/YuppySC-Regular.otf
p720
sg20
g21
sbag1
(g8
g3
NtRp721
(dp722
g11
g12
sg13
S'Comic Sans MS'
p723
sg15
I700
sg16
g12
sg17
g12
sg18
V/Library/Fonts/Comic Sans MS Bold.ttf
p724
sg20
g21
sbag1
(g8
g3
NtRp725
(dp726
g11
g12
sg13
S'Trebuchet MS'
p727
sg15
I400
sg16
g12
sg17
g12
sg18
V/Library/Fonts/Trebuchet MS.ttf
p728
sg20
g21
sbag1
(g8
g3
NtRp729
(dp730
g11
g12
sg13
S'Courier New'
p731
sg15
I700
sg16
g12
sg17
g12
sg18
V/Library/Fonts/Courier New Bold.ttf
p732
sg20
g21
sbag1
(g8
g3
NtRp733
(dp734
g11
g12
sg13
S'Big Caslon'
p735
sg15
I500
sg16
g12
sg17
g12
sg18
V/Library/Fonts/BigCaslon.ttf
p736
sg20
g21
sbag1
(g8
g3
NtRp737
(dp738
g11
g12
sg13
S'Menlo for Powerline'
p739
sg15
I400
sg16
g12
sg17
g12
sg18
V/Users/npinto/.fonts/Menlo-Powerline.otf
p740
sg20
g21
sbag1
(g8
g3
NtRp741
(dp742
g11
g12
sg13
S'Ayuthaya'
p743
sg15
I400
sg16
g12
sg17
g12
sg18
V/Library/Fonts/Ayuthaya.ttf
p744
sg20
g21
sbag1
(g8
g3
NtRp745
(dp746
g11
g12
sg13
S'Apple SD Gothic Neo'
p747
sg15
I700
sg16
g12
sg17
g12
sg18
V/Library/Fonts/AppleSDGothicNeo-SemiBold.otf
p748
sg20
g21
sbag1
(g8
g3
NtRp749
(dp750
g11
g12
sg13
S'Herculanum'
p751
sg15
I400
sg16
g12
sg17
g12
sg18
V/Library/Fonts/Herculanum.ttf
p752
sg20
g21
sbag1
(g8
g3
NtRp753
(dp754
g11
g12
sg13
S'Webdings'
p755
sg15
I400
sg16
g12
sg17
g12
sg18
V/Library/Fonts/Webdings.ttf
p756
sg20
g21
sbag1
(g8
g3
NtRp757
(dp758
g11
g12
sg13
S'Apple Braille'
p759
sg15
I400
sg16
g12
sg17
g12
sg18
V/System/Library/Fonts/Apple Braille Pinpoint 6 Dot.ttf
p760
sg20
g21
sbag1
(g8
g3
NtRp761
(dp762
g11
g12
sg13
S'Hiragino Mincho ProN'
p763
sg15
I700
sg16
g12
sg17
g12
sg18
V/System/Library/Fonts/\u30d2\u30e9\u30ad\u3099\u30ce\u660e\u671d ProN W6.otf
p764
sg20
g21
sbag1
(g8
g3
NtRp765
(dp766
g11
g12
sg13
S'Symbol'
p767
sg15
I400
sg16
g12
sg17
g12
sg18
V/System/Library/Fonts/Symbol.ttf
p768
sg20
g21
sbag1
(g8
g3
NtRp769
(dp770
g11
g40
sg13
S'Trebuchet MS'
p771
sg15
I700
sg16
g12
sg17
g12
sg18
V/Library/Fonts/Trebuchet MS Bold Italic.ttf
p772
sg20
g21
sbag1
(g8
g3
NtRp773
(dp774
g11
g12
sg13
S'STHeiti'
p775
sg15
I400
sg16
g12
sg17
g12
sg18
V/Library/Fonts/\u534e\u6587\u7ec6\u9ed1.ttf
p776
sg20
g21
sbag1
(g8
g3
NtRp777
(dp778
g11
g12
sg13
S'Wingdings 2'
p779
sg15
I400
sg16
g12
sg17
g12
sg18
V/Library/Fonts/Wingdings 2.ttf
p780
sg20
g21
sbag1
(g8
g3
NtRp781
(dp782
g11
g12
sg13
S'SignPainter'
p783
sg15
I400
sg16
g12
sg17
g12
sg18
V/Library/Fonts/SignPainter.otf
p784
sg20
g21
sbag1
(g8
g3
NtRp785
(dp786
g11
g12
sg13
S'Tahoma'
p787
sg15
I400
sg16
g12
sg17
g12
sg18
V/Library/Fonts/Tahoma.ttf
p788
sg20
g21
sbag1
(g8
g3
NtRp789
(dp790
g11
g40
sg13
S'Brush Script MT'
p791
sg15
I400
sg16
g12
sg17
g12
sg18
V/Library/Fonts/Brush Script.ttf
p792
sg20
g21
sbag1
(g8
g3
NtRp793
(dp794
g11
g12
sg13
S'.Keyboard'
p795
sg15
I400
sg16
g12
sg17
g12
sg18
V/System/Library/Fonts/Keyboard.ttf
p796
sg20
g21
sbag1
(g8
g3
NtRp797
(dp798
g11
g12
sg13
S'STIXSizeOneSym'
p799
sg15
I400
sg16
g12
sg17
g12
sg18
V/Library/Fonts/STIXSizOneSymReg.otf
p800
sg20
g21
sbag1
(g8
g3
NtRp801
(dp802
g11
g12
sg13
S'STIXIntegralsUpSm'
p803
sg15
I400
sg16
g12
sg17
g12
sg18
V/Library/Fonts/STIXIntUpSmReg.otf
p804
sg20
g21
sbag1
(g8
g3
NtRp805
(dp806
g11
g12
sg13
S'Andale Mono'
p807
sg15
I400
sg16
g12
sg17
g12
sg18
V/Library/Fonts/Andale Mono.ttf
p808
sg20
g21
sbag1
(g8
g3
NtRp809
(dp810
g11
g12
sg13
S'Khmer Sangam MN'
p811
sg15
I400
sg16
g12
sg17
g12
sg18
V/Library/Fonts/Khmer Sangam MN.ttf
p812
sg20
g21
sbag1
(g8
g3
NtRp813
(dp814
g11
g12
sg13
S'YuMincho'
p815
sg15
I400
sg16
g12
sg17
g12
sg18
V/Library/Fonts/Yu Mincho Medium.otf
p816
sg20
g21
sbag1
(g8
g3
NtRp817
(dp818
g11
g12
sg13
S'Microsoft Sans Serif'
p819
sg15
I400
sg16
g12
sg17
g12
sg18
V/Library/Fonts/Microsoft Sans Serif.ttf
p820
sg20
g21
sbag1
(g8
g3
NtRp821
(dp822
g11
g12
sg13
S'STIXIntegralsUpD'
p823
sg15
I700
sg16
g12
sg17
g12
sg18
V/Library/Fonts/STIXIntUpDBol.otf
p824
sg20
g21
sbag1
(g8
g3
NtRp825
(dp826
g11
g12
sg13
S'.Hiragino Kaku Gothic Interface'
p827
sg15
I400
sg16
g12
sg17
g12
sg18
V/System/Library/Fonts/HiraKakuInterface-W2.otf
p828
sg20
g21
sbag1
(g8
g3
NtRp829
(dp830
g11
g12
sg13
S'STIXGeneral'
p831
sg15
I400
sg16
g12
sg17
g12
sg18
V/Library/Fonts/STIXGeneral.otf
p832
sg20
g21
sbag1
(g8
g3
NtRp833
(dp834
g11
g40
sg13
S'Courier New'
p835
sg15
I400
sg16
g12
sg17
g12
sg18
V/Library/Fonts/Courier New Italic.ttf
p836
sg20
g21
sbag1
(g8
g3
NtRp837
(dp838
g11
g12
sg13
S'Arial Black'
p839
sg15
I900
sg16
g12
sg17
g12
sg18
V/Library/Fonts/Arial Black.ttf
p840
sg20
g21
sbag1
(g8
g3
NtRp841
(dp842
g11
g40
sg13
S'STIXGeneral'
p843
sg15
I400
sg16
g12
sg17
g12
sg18
V/Library/Fonts/STIXGeneralItalic.otf
p844
sg20
g21
sbag1
(g8
g3
NtRp845
(dp846
g11
g12
sg13
S'Silom'
p847
sg15
I400
sg16
g12
sg17
g12
sg18
V/Library/Fonts/Silom.ttf
p848
sg20
g21
sbag1
(g8
g3
NtRp849
(dp850
g11
g45
sg13
S'Mshtakan'
p851
sg15
I700
sg16
g12
sg17
g12
sg18
V/Library/Fonts/MshtakanBoldOblique.ttf
p852
sg20
g21
sbag1
(g8
g3
NtRp853
(dp854
g11
g12
sg13
S'Yuppy TC'
p855
sg15
I400
sg16
g12
sg17
g12
sg18
V/Library/Fonts/YuppyTC-Regular.otf
p856
sg20
g21
sbag1
(g8
g3
NtRp857
(dp858
g11
g12
sg13
S'Hiragino Kaku Gothic ProN'
p859
sg15
I400
sg16
g12
sg17
g12
sg18
V/System/Library/Fonts/\u30d2\u30e9\u30ad\u3099\u30ce\u89d2\u30b3\u3099 ProN W3.otf
p860
sg20
g21
sbag1
(g8
g3
NtRp861
(dp862
g11
g12
sg13
S'STIXSizeFourSym'
p863
sg15
I400
sg16
g12
sg17
g12
sg18
V/Library/Fonts/STIXSizFourSymReg.otf
p864
sg20
g21
sbag1
(g8
g3
NtRp865
(dp866
g11
g12
sg13
S'Apple Chancery'
p867
sg15
I400
sg16
g12
sg17
g12
sg18
V/Library/Fonts/Apple Chancery.ttf
p868
sg20
g21
sbag1
(g8
g3
NtRp869
(dp870
g11
g12
sg13
S'Wingdings 3'
p871
sg15
I400
sg16
g12
sg17
g12
sg18
V/Library/Fonts/Wingdings 3.ttf
p872
sg20
g21
sbag1
(g8
g3
NtRp873
(dp874
g11
g40
sg13
S'STIXGeneral'
p875
sg15
I700
sg16
g12
sg17
g12
sg18
V/Library/Fonts/STIXGeneralBolIta.otf
p876
sg20
g21
sbag1
(g8
g3
NtRp877
(dp878
g11
g12
sg13
S'STIXIntegralsUpSm'
p879
sg15
I700
sg16
g12
sg17
g12
sg18
V/Library/Fonts/STIXIntUpSmBol.otf
p880
sg20
g21
sbag1
(g8
g3
NtRp881
(dp882
g11
g12
sg13
S'Lao Sangam MN'
p883
sg15
I400
sg16
g12
sg17
g12
sg18
V/Library/Fonts/Lao Sangam MN.ttf
p884
sg20
g21
sbag1
(g8
g3
NtRp885
(dp886
g11
g12
sg13
S'Trattatello'
p887
sg15
I400
sg16
g12
sg17
g12
sg18
V/Library/Fonts/Trattatello.ttf
p888
sg20
g21
sbag1
(g8
g3
NtRp889
(dp890
g11
g12
sg13
S'STIXSizeOneSym'
p891
sg15
I700
sg16
g12
sg17
g12
sg18
V/Library/Fonts/STIXSizOneSymBol.otf
p892
sg20
g21
sbag1
(g8
g3
NtRp893
(dp894
g11
g12
sg13
S'Comic Sans MS'
p895
sg15
I400
sg16
g12
sg17
g12
sg18
V/Library/Fonts/Comic Sans MS.ttf
p896
sg20
g21
sbag1
(g8
g3
NtRp897
(dp898
g11
g12
sg13
S'STIXSizeTwoSym'
p899
sg15
I400
sg16
g12
sg17
g12
sg18
V/Library/Fonts/STIXSizTwoSymReg.otf
p900
sg20
g21
sbag1
(g8
g3
NtRp901
(dp902
g11
g12
sg13
S'Bodoni Ornaments'
p903
sg15
I400
sg16
g12
sg17
g12
sg18
V/Library/Fonts/Bodoni Ornaments.ttf
p904
sg20
g21
sbag1
(g8
g3
NtRp905
(dp906
g11
g12
sg13
S'Weibei SC'
p907
sg15
I700
sg16
g12
sg17
g12
sg18
V/Library/Fonts/WeibeiSC-Bold.otf
p908
sg20
g21
sbag1
(g8
g3
NtRp909
(dp910
g11
g12
sg13
S'STIXSizeFourSym'
p911
sg15
I700
sg16
g12
sg17
g12
sg18
V/Library/Fonts/STIXSizFourSymBol.otf
p912
sg20
g21
sbag1
(g8
g3
NtRp913
(dp914
g11
g12
sg13
S'Arial'
p915
sg15
I700
sg16
g12
sg17
g12
sg18
V/Library/Fonts/Arial Bold.ttf
p916
sg20
g21
sbag1
(g8
g3
NtRp917
(dp918
g11
g12
sg13
S'Georgia'
p919
sg15
I700
sg16
g12
sg17
g12
sg18
V/Library/Fonts/Georgia Bold.ttf
p920
sg20
g21
sbag1
(g8
g3
NtRp921
(dp922
g11
g12
sg13
S'STIXIntegralsD'
p923
sg15
I400
sg16
g12
sg17
g12
sg18
V/Library/Fonts/STIXIntDReg.otf
p924
sg20
g21
sbag1
(g8
g3
NtRp925
(dp926
g11
g12
sg13
S'GungSeo'
p927
sg15
I400
sg16
g12
sg17
g12
sg18
V/Library/Fonts/Gungseouche.ttf
p928
sg20
g21
sbag1
(g8
g3
NtRp929
(dp930
g11
g12
sg13
S'STIXSizeTwoSym'
p931
sg15
I700
sg16
g12
sg17
g12
sg18
V/Library/Fonts/STIXSizTwoSymBol.otf
p932
sg20
g21
sbag1
(g8
g3
NtRp933
(dp934
g11
g12
sg13
S'Wingdings'
p935
sg15
I400
sg16
g12
sg17
g12
sg18
V/Library/Fonts/Wingdings.ttf
p936
sg20
g21
sbag1
(g8
g3
NtRp937
(dp938
g11
g12
sg13
S'Hiragino Kaku Gothic StdN'
p939
sg15
I700
sg16
g12
sg17
g12
sg18
V/Library/Fonts/\u30d2\u30e9\u30ad\u3099\u30ce\u89d2\u30b3\u3099 StdN W8.otf
p940
sg20
g21
sbag1
(g8
g3
NtRp941
(dp942
g11
g12
sg13
S'Impact'
p943
sg15
I400
sg16
g12
sg17
g12
sg18
V/Library/Fonts/Impact.ttf
p944
sg20
g21
sbag1
(g8
g3
NtRp945
(dp946
g11
g12
sg13
S'Tahoma'
p947
sg15
I700
sg16
g12
sg17
g12
sg18
V/Library/Fonts/Tahoma Bold.ttf
p948
sg20
g21
sbag1
(g8
g3
NtRp949
(dp950
g11
g12
sg13
S'STIXNonUnicode'
p951
sg15
I700
sg16
g12
sg17
g12
sg18
V/Library/Fonts/STIXNonUniBol.otf
p952
sg20
g21
sbag1
(g8
g3
NtRp953
(dp954
g11
g40
sg13
S'Georgia'
p955
sg15
I700
sg16
g12
sg17
g12
sg18
V/Library/Fonts/Georgia Bold Italic.ttf
p956
sg20
g21
sbag1
(g8
g3
NtRp957
(dp958
g11
g12
sg13
S'STIXIntegralsUpD'
p959
sg15
I400
sg16
g12
sg17
g12
sg18
V/Library/Fonts/STIXIntUpDReg.otf
p960
sg20
g21
sbag1
(g8
g3
NtRp961
(dp962
g11
g12
sg13
S'Sathu'
p963
sg15
I400
sg16
g12
sg17
g12
sg18
V/Library/Fonts/Sathu.ttf
p964
sg20
g21
sbag1
(g8
g3
NtRp965
(dp966
g11
g12
sg13
S'Gujarati MT'
p967
sg15
I400
sg16
g12
sg17
g12
sg18
V/Library/Fonts/GujaratiMT.ttf
p968
sg20
g21
sbag1
(g8
g3
NtRp969
(dp970
g11
g12
sg13
S'Apple SD Gothic Neo'
p971
sg15
I500
sg16
g12
sg17
g12
sg18
V/Library/Fonts/AppleSDGothicNeo-Medium.otf
p972
sg20
g21
sbasS'defaultFamily'
p973
(dp974
Vafm
p975
VHelvetica
p976
sVttf
p977
VBitstream Vera Sans
p978
ssS'ttffiles'
p979
(lp980
g19
ag25
ag29
ag33
ag37
ag42
ag47
ag51
ag55
ag59
ag63
ag67
ag71
ag75
ag79
ag83
ag87
ag91
ag95
ag99
ag103
ag107
ag111
ag115
ag119
ag123
ag127
ag131
ag135
ag139
ag143
ag147
ag151
ag155
ag159
ag163
ag167
aV/usr/X11R6/lib/X11/fonts/TTF/VeraBd.ttf
p981
ag171
ag175
aV/usr/X11R6/lib/X11/fonts/TTF/VeraBI.ttf
p982
ag179
ag183
ag187
ag191
ag195
ag199
ag203
aV/usr/X11/lib/X11/fonts/TTF/VeraSe.ttf
p983
ag207
ag212
ag216
ag220
ag224
ag228
ag232
ag236
ag240
ag244
ag248
ag252
ag256
aV/opt/X11/share/fonts/TTF/VeraMoIt.ttf
p984
ag260
ag264
ag268
ag272
ag276
ag280
aV/Library/Fonts/NISC18030.ttf
p985
ag284
ag288
ag292
ag296
ag300
ag304
aV/usr/X11/lib/X11/fonts/TTF/VeraBd.ttf
p986
aV/usr/X11/lib/X11/fonts/OTF/SyrCOMMardinBold.otf
p987
ag308
aV/opt/X11/share/fonts/TTF/VeraMoBd.ttf
p988
ag312
ag316
ag320
aV/usr/X11R6/lib/X11/fonts/TTF/Vera.ttf
p989
aV/usr/X11R6/lib/X11/fonts/TTF/VeraMoIt.ttf
p990
aV/opt/X11/share/fonts/TTF/Vera.ttf
p991
ag324
aV/usr/X11R6/lib/X11/fonts/TTF/VeraMono.ttf
p992
ag328
ag332
ag336
ag340
ag344
ag348
ag352
ag356
ag360
ag364
ag368
ag372
aV/opt/X11/share/fonts/OTF/SyrCOMBatnan.otf
p993
ag376
ag380
ag384
ag388
aV/opt/X11/share/fonts/TTF/VeraMono.ttf
p994
aV/usr/X11/lib/X11/fonts/OTF/SyrCOMTurAbdin.otf
p995
ag392
aV/usr/X11R6/lib/X11/fonts/OTF/SyrCOMAdiabene.otf
p996
ag396
ag400
ag404
ag408
ag412
ag416
aV/usr/X11/lib/X11/fonts/OTF/SyrCOMCtesiphon.otf
p997
ag420
aV/usr/X11/lib/X11/fonts/OTF/SyrCOMTalada.otf
p998
ag424
ag428
ag432
ag436
aV/usr/X11R6/lib/X11/fonts/TTF/VeraSe.ttf
p999
ag440
ag444
ag448
ag452
ag456
ag460
aV/usr/X11/lib/X11/fonts/TTF/VeraIt.ttf
p1000
aV/usr/X11/lib/X11/fonts/TTF/luxisbi.ttf
p1001
ag464
ag468
ag472
ag476
ag480
ag484
ag488
ag492
ag496
aV/usr/X11/lib/X11/fonts/OTF/SyrCOMMalankara.otf
p1002
ag500
ag504
ag508
aV/usr/X11/lib/X11/fonts/TTF/VeraMono.ttf
p1003
ag512
ag516
aV/usr/X11/lib/X11/fonts/OTF/SyrCOMBatnan.otf
p1004
ag520
ag524
aV/usr/X11R6/lib/X11/fonts/OTF/SyrCOMJerusalem.otf
p1005
ag528
ag532
ag536
ag540
aV/usr/X11R6/lib/X11/fonts/TTF/luxisbi.ttf
p1006
ag544
aV/opt/X11/share/fonts/TTF/VeraSeBd.ttf
p1007
ag548
ag552
ag556
ag560
ag564
ag568
aV/System/Library/Fonts/Apple Color Emoji.ttf
p1008
aV/opt/X11/share/fonts/TTF/VeraBd.ttf
p1009
ag572
ag576
aV/usr/X11R6/lib/X11/fonts/OTF/SyrCOMEdessa.otf
p1010
aV/usr/X11/lib/X11/fonts/TTF/luxisr.ttf
p1011
aV/usr/X11/lib/X11/fonts/OTF/SyrCOMAdiabene.otf
p1012
ag580
ag584
aV/usr/X11R6/lib/X11/fonts/TTF/luxisb.ttf
p1013
aV/opt/X11/share/fonts/TTF/luxisri.ttf
p1014
aV/usr/X11/lib/X11/fonts/TTF/VeraMoBI.ttf
p1015
ag588
ag592
aV/usr/X11R6/lib/X11/fonts/TTF/luxirb.ttf
p1016
ag596
aV/usr/X11R6/lib/X11/fonts/OTF/SyrCOMNisibinOutline.otf
p1017
ag600
ag604
ag608
ag612
aV/opt/X11/share/fonts/OTF/SyrCOMTurAbdin.otf
p1018
aV/opt/X11/share/fonts/OTF/SyrCOMTalada.otf
p1019
aV/usr/X11/lib/X11/fonts/OTF/SyrCOMKharput.otf
p1020
ag616
ag620
ag624
aV/usr/X11R6/lib/X11/fonts/OTF/SyrCOMNisibin.otf
p1021
aV/usr/X11/lib/X11/fonts/TTF/luxirri.ttf
p1022
ag628
ag632
ag636
ag640
ag644
ag648
aV/usr/X11/lib/X11/fonts/OTF/SyrCOMQenNeshrin.otf
p1023
ag652
ag656
ag660
aV/usr/X11/lib/X11/fonts/OTF/SyrCOMEdessa.otf
p1024
ag664
ag668
ag672
aV/usr/X11R6/lib/X11/fonts/TTF/VeraIt.ttf
p1025
ag676
ag680
ag684
ag688
aV/opt/X11/share/fonts/OTF/GohaTibebZemen.otf
p1026
ag692
aV/opt/X11/share/fonts/OTF/SyrCOMCtesiphon.otf
p1027
aV/usr/X11R6/lib/X11/fonts/OTF/SyrCOMBatnanBold.otf
p1028
ag696
aV/usr/X11/lib/X11/fonts/OTF/SyrCOMAntioch.otf
p1029
aV/usr/X11/lib/X11/fonts/TTF/luxirb.ttf
p1030
ag700
aV/opt/X11/share/fonts/OTF/SyrCOMMidyat.otf
p1031
aV/opt/X11/share/fonts/TTF/GohaTibebZemen.ttf
p1032
aV/usr/X11R6/lib/X11/fonts/TTF/luxirri.ttf
p1033
ag704
aV/usr/X11/lib/X11/fonts/TTF/luxirbi.ttf
p1034
aV/usr/X11/lib/X11/fonts/OTF/SyrCOMJerusalemBold.otf
p1035
ag708
aV/opt/X11/share/fonts/TTF/luxirr.ttf
p1036
ag712
aV/usr/X11/lib/X11/fonts/TTF/VeraMoIt.ttf
p1037
ag716
ag720
aV/usr/X11R6/lib/X11/fonts/TTF/luximb.ttf
p1038
ag724
ag728
aV/usr/X11/lib/X11/fonts/TTF/VeraBI.ttf
p1039
ag732
ag736
ag740
aV/opt/X11/share/fonts/OTF/SyrCOMJerusalem.otf
p1040
aV/opt/X11/share/fonts/TTF/VeraSe.ttf
p1041
aV/usr/X11/lib/X11/fonts/OTF/SyrCOMUrhoy.otf
p1042
ag744
aV/opt/X11/share/fonts/OTF/SyrCOMJerusalemBold.otf
p1043
ag748
ag752
ag756
aV/usr/X11R6/lib/X11/fonts/OTF/SyrCOMMidyat.otf
p1044
ag760
ag764
ag768
aV/usr/X11R6/lib/X11/fonts/TTF/luxirbi.ttf
p1045
aV/usr/X11/lib/X11/fonts/OTF/SyrCOMNisibin.otf
p1046
ag772
aV/usr/X11/lib/X11/fonts/TTF/VeraSeBd.ttf
p1047
ag776
aV/opt/X11/share/fonts/TTF/VeraIt.ttf
p1048
ag780
ag784
aV/opt/X11/share/fonts/OTF/SyrCOMJerusalemOutline.otf
p1049
ag788
ag792
aV/usr/X11R6/lib/X11/fonts/OTF/SyrCOMJerusalemOutline.otf
p1050
ag796
aV/opt/X11/share/fonts/OTF/SyrCOMMardinBold.otf
p1051
aV/usr/X11R6/lib/X11/fonts/TTF/VeraSeBd.ttf
p1052
ag800
ag804
ag808
aV/usr/X11R6/lib/X11/fonts/OTF/SyrCOMUrhoy.otf
p1053
ag812
aV/usr/X11R6/lib/X11/fonts/TTF/luximbi.ttf
p1054
ag816
ag820
aV/usr/X11/lib/X11/fonts/TTF/luximb.ttf
p1055
aV/opt/X11/share/fonts/TTF/VeraMoBI.ttf
p1056
ag824
aV/usr/X11R6/lib/X11/fonts/TTF/luximr.ttf
p1057
ag828
ag832
ag836
ag840
aV/usr/X11/lib/X11/fonts/TTF/luximbi.ttf
p1058
aV/usr/X11R6/lib/X11/fonts/OTF/SyrCOMQenNeshrin.otf
p1059
aV/usr/X11/lib/X11/fonts/OTF/SyrCOMMardin.otf
p1060
ag844
aV/usr/X11/lib/X11/fonts/OTF/GohaTibebZemen.otf
p1061
ag848
aV/usr/X11R6/lib/X11/fonts/OTF/SyrCOMUrhoyBold.otf
p1062
ag852
aV/opt/X11/share/fonts/TTF/luximri.ttf
p1063
ag856
aV/usr/X11R6/lib/X11/fonts/OTF/SyrCOMAntioch.otf
p1064
aV/opt/X11/share/fonts/OTF/SyrCOMKharput.otf
p1065
ag860
ag864
aV/usr/X11/lib/X11/fonts/OTF/SyrCOMBatnanBold.otf
p1066
ag868
aV/usr/X11R6/lib/X11/fonts/OTF/SyrCOMMardin.otf
p1067
aV/usr/X11/lib/X11/fonts/TTF/luximr.ttf
p1068
aV/usr/X11/lib/X11/fonts/TTF/Vera.ttf
p1069
aV/opt/X11/share/fonts/OTF/SyrCOMMalankara.otf
p1070
ag872
ag876
aV/opt/X11/share/fonts/TTF/VeraBI.ttf
p1071
ag880
ag884
aV/usr/X11R6/lib/X11/fonts/TTF/GohaTibebZemen.ttf
p1072
ag888
aV/usr/X11R6/lib/X11/fonts/TTF/luxisr.ttf
p1073
aV/usr/X11R6/lib/X11/fonts/OTF/SyrCOMJerusalemItalic.otf
p1074
ag892
ag896
aV/opt/X11/share/fonts/TTF/luxisb.ttf
p1075
ag900
aV/usr/X11/lib/X11/fonts/OTF/SyrCOMNisibinOutline.otf
p1076
ag904
ag908
ag912
aV/usr/X11R6/lib/X11/fonts/TTF/VeraMoBd.ttf
p1077
ag916
ag920
ag924
ag928
aV/usr/X11/lib/X11/fonts/OTF/SyrCOMJerusalemItalic.otf
p1078
aV/usr/X11R6/lib/X11/fonts/TTF/luxisri.ttf
p1079
ag932
ag936
ag940
ag944
aV/usr/X11/lib/X11/fonts/TTF/VeraMoBd.ttf
p1080
ag948
ag952
ag956
ag960
ag964
aV/usr/X11R6/lib/X11/fonts/TTF/luximri.ttf
p1081
ag968
aV/usr/X11R6/lib/X11/fonts/TTF/VeraMoBI.ttf
p1082
aV/usr/X11/lib/X11/fonts/TTF/luxirr.ttf
p1083
aV/opt/X11/share/fonts/OTF/SyrCOMUrhoyBold.otf
p1084
ag972
asS'_FontManager__default_weight'
p1085
Vnormal
p1086
sS'_version'
p1087
I101
sS'default_size'
p1088
NsS'defaultFont'
p1089
(dp1090
g975
V/usr/local/lib/python2.7/site-packages/matplotlib/mpl-data/fonts/pdfcorefonts/Helvetica-Bold.afm
p1091
sg977
g111
ssS'afmfiles'
p1092
(lp1093
g1091
aV/usr/local/lib/python2.7/site-packages/matplotlib/mpl-data/fonts/pdfcorefonts/Courier-Oblique.afm
p1094
aV/usr/local/lib/python2.7/site-packages/matplotlib/mpl-data/fonts/afm/phvb8a.afm
p1095
aV/usr/local/lib/python2.7/site-packages/matplotlib/mpl-data/fonts/pdfcorefonts/Times-Bold.afm
p1096
aV/usr/local/lib/python2.7/site-packages/matplotlib/mpl-data/fonts/afm/pbkli8a.afm
p1097
aV/usr/local/lib/python2.7/site-packages/matplotlib/mpl-data/fonts/pdfcorefonts/Courier-BoldOblique.afm
p1098
aV/usr/local/lib/python2.7/site-packages/matplotlib/mpl-data/fonts/afm/phvr8an.afm
p1099
aV/usr/local/lib/python2.7/site-packages/matplotlib/mpl-data/fonts/pdfcorefonts/Courier.afm
p1100
aV/usr/local/lib/python2.7/site-packages/matplotlib/mpl-data/fonts/afm/ptmri8a.afm
p1101
aV/usr/local/lib/python2.7/site-packages/matplotlib/mpl-data/fonts/afm/cmex10.afm
p1102
aV/usr/local/lib/python2.7/site-packages/matplotlib/mpl-data/fonts/afm/pzdr.afm
p1103
aV/usr/local/lib/python2.7/site-packages/matplotlib/mpl-data/fonts/afm/phvr8a.afm
p1104
aV/usr/local/lib/python2.7/site-packages/matplotlib/mpl-data/fonts/afm/pncbi8a.afm
p1105
aV/usr/local/lib/python2.7/site-packages/matplotlib/mpl-data/fonts/afm/phvbo8an.afm
p1106
aV/usr/local/lib/python2.7/site-packages/matplotlib/mpl-data/fonts/afm/pagd8a.afm
p1107
aV/usr/local/lib/python2.7/site-packages/matplotlib/mpl-data/fonts/afm/pplbi8a.afm
p1108
aV/usr/local/lib/python2.7/site-packages/matplotlib/mpl-data/fonts/afm/cmtt10.afm
p1109
aV/usr/local/lib/python2.7/site-packages/matplotlib/mpl-data/fonts/afm/putri8a.afm
p1110
aV/usr/local/lib/python2.7/site-packages/matplotlib/mpl-data/fonts/afm/pplr8a.afm
p1111
aV/usr/local/lib/python2.7/site-packages/matplotlib/mpl-data/fonts/afm/cmsy10.afm
p1112
aV/usr/local/lib/python2.7/site-packages/matplotlib/mpl-data/fonts/afm/putb8a.afm
p1113
aV/usr/local/lib/python2.7/site-packages/matplotlib/mpl-data/fonts/pdfcorefonts/Helvetica.afm
p1114
aV/usr/local/lib/python2.7/site-packages/matplotlib/mpl-data/fonts/afm/pplb8a.afm
p1115
aV/usr/local/lib/python2.7/site-packages/matplotlib/mpl-data/fonts/afm/phvb8an.afm
p1116
aV/usr/local/lib/python2.7/site-packages/matplotlib/mpl-data/fonts/afm/putr8a.afm
p1117
aV/usr/local/lib/python2.7/site-packages/matplotlib/mpl-data/fonts/afm/phvro8a.afm
p1118
aV/usr/local/lib/python2.7/site-packages/matplotlib/mpl-data/fonts/pdfcorefonts/Helvetica-BoldOblique.afm
p1119
aV/usr/local/lib/python2.7/site-packages/matplotlib/mpl-data/fonts/pdfcorefonts/Symbol.afm
p1120
aV/usr/local/lib/python2.7/site-packages/matplotlib/mpl-data/fonts/afm/pplri8a.afm
p1121
aV/usr/local/lib/python2.7/site-packages/matplotlib/mpl-data/fonts/pdfcorefonts/Times-Italic.afm
p1122
aV/usr/local/lib/python2.7/site-packages/matplotlib/mpl-data/fonts/afm/ptmb8a.afm
p1123
aV/usr/local/lib/python2.7/site-packages/matplotlib/mpl-data/fonts/afm/ptmr8a.afm
p1124
aV/usr/local/lib/python2.7/site-packages/matplotlib/mpl-data/fonts/afm/phvl8a.afm
p1125
aV/usr/local/lib/python2.7/site-packages/matplotlib/mpl-data/fonts/afm/putbi8a.afm
p1126
aV/usr/local/lib/python2.7/site-packages/matplotlib/mpl-data/fonts/afm/pncri8a.afm
p1127
aV/usr/local/lib/python2.7/site-packages/matplotlib/mpl-data/fonts/afm/cmr10.afm
p1128
aV/usr/local/lib/python2.7/site-packages/matplotlib/mpl-data/fonts/afm/pbkl8a.afm
p1129
aV/usr/local/lib/python2.7/site-packages/matplotlib/mpl-data/fonts/pdfcorefonts/Helvetica-Oblique.afm
p1130
aV/usr/local/lib/python2.7/site-packages/matplotlib/mpl-data/fonts/pdfcorefonts/Times-BoldItalic.afm
p1131
aV/usr/local/lib/python2.7/site-packages/matplotlib/mpl-data/fonts/afm/phvlo8a.afm
p1132
aV/usr/local/lib/python2.7/site-packages/matplotlib/mpl-data/fonts/afm/pcrbo8a.afm
p1133
aV/usr/local/lib/python2.7/site-packages/matplotlib/mpl-data/fonts/pdfcorefonts/Courier-Bold.afm
p1134
aV/usr/local/lib/python2.7/site-packages/matplotlib/mpl-data/fonts/afm/phvro8an.afm
p1135
aV/usr/local/lib/python2.7/site-packages/matplotlib/mpl-data/fonts/afm/ptmbi8a.afm
p1136
aV/usr/local/lib/python2.7/site-packages/matplotlib/mpl-data/fonts/afm/pcrb8a.afm
p1137
aV/usr/local/lib/python2.7/site-packages/matplotlib/mpl-data/fonts/afm/phvbo8a.afm
p1138
aV/usr/local/lib/python2.7/site-packages/matplotlib/mpl-data/fonts/afm/pncr8a.afm
p1139
aV/usr/local/lib/python2.7/site-packages/matplotlib/mpl-data/fonts/afm/psyr.afm
p1140
aV/usr/local/lib/python2.7/site-packages/matplotlib/mpl-data/fonts/afm/pcrro8a.afm
p1141
aV/usr/local/lib/python2.7/site-packages/matplotlib/mpl-data/fonts/pdfcorefonts/ZapfDingbats.afm
p1142
aV/usr/local/lib/python2.7/site-packages/matplotlib/mpl-data/fonts/afm/cmmi10.afm
p1143
aV/usr/local/lib/python2.7/site-packages/matplotlib/mpl-data/fonts/afm/pcrr8a.afm
p1144
aV/usr/local/lib/python2.7/site-packages/matplotlib/mpl-data/fonts/afm/pncb8a.afm
p1145
aV/usr/local/lib/python2.7/site-packages/matplotlib/mpl-data/fonts/afm/pbkd8a.afm
p1146
aV/usr/local/lib/python2.7/site-packages/matplotlib/mpl-data/fonts/afm/pzcmi8a.afm
p1147
aV/usr/local/lib/python2.7/site-packages/matplotlib/mpl-data/fonts/afm/pagko8a.afm
p1148
aV/usr/local/lib/python2.7/site-packages/matplotlib/mpl-data/fonts/pdfcorefonts/Times-Roman.afm
p1149
aV/usr/local/lib/python2.7/site-packages/matplotlib/mpl-data/fonts/afm/pagk8a.afm
p1150
aV/usr/local/lib/python2.7/site-packages/matplotlib/mpl-data/fonts/afm/pagdo8a.afm
p1151
aV/usr/local/lib/python2.7/site-packages/matplotlib/mpl-data/fonts/afm/pbkdi8a.afm
p1152
aV/usr/X11/lib/X11/fonts/Type1/UTB_____.afm
p1153
aV/usr/X11/lib/X11/fonts/Type1/c0583bt_.afm
p1154
aV/usr/X11/lib/X11/fonts/Type1/l049036t.afm
p1155
aV/usr/X11/lib/X11/fonts/Type1/c0649bt_.afm
p1156
aV/usr/X11/lib/X11/fonts/Type1/UTRG____.afm
p1157
aV/usr/X11/lib/X11/fonts/Type1/c0582bt_.afm
p1158
aV/usr/X11/lib/X11/fonts/Type1/c0648bt_.afm
p1159
aV/usr/X11/lib/X11/fonts/Type1/c0633bt_.afm
p1160
aV/usr/X11/lib/X11/fonts/Type1/l048013t.afm
p1161
aV/usr/X11/lib/X11/fonts/Type1/courb.afm
p1162
aV/usr/X11/lib/X11/fonts/Type1/c0419bt_.afm
p1163
aV/usr/X11/lib/X11/fonts/Type1/UTI_____.afm
p1164
aV/usr/X11/lib/X11/fonts/Type1/l049016t.afm
p1165
aV/usr/X11/lib/X11/fonts/Type1/l048033t.afm
p1166
aV/usr/X11/lib/X11/fonts/Type1/l048016t.afm
p1167
aV/usr/X11/lib/X11/fonts/Type1/l048036t.afm
p1168
aV/usr/X11/lib/X11/fonts/Type1/courbi.afm
p1169
aV/usr/X11/lib/X11/fonts/Type1/c0632bt_.afm
p1170
aV/usr/X11/lib/X11/fonts/Type1/l049013t.afm
p1171
aV/usr/X11/lib/X11/fonts/Type1/c0611bt_.afm
p1172
aV/usr/X11/lib/X11/fonts/Type1/l047036t.afm
p1173
aV/usr/X11/lib/X11/fonts/Type1/l047016t.afm
p1174
aV/usr/X11/lib/X11/fonts/Type1/l047033t.afm
p1175
aV/usr/X11/lib/X11/fonts/Type1/l047013t.afm
p1176
aV/usr/X11/lib/X11/fonts/Type1/l049033t.afm
p1177
aV/usr/X11/lib/X11/fonts/Type1/UTBI____.afm
p1178
aV/usr/X11/lib/X11/fonts/Type1/cour.afm
p1179
aV/usr/X11/lib/X11/fonts/Type1/couri.afm
p1180
asS'afmlist'
p1181
(lp1182
g1
(g8
g3
NtRp1183
(dp1184
g11
Vnormal
p1185
sg13
S'Helvetica'
p1186
sg15
I700
sg16
g1185
sg17
g1185
sg18
g1091
sg20
Vscalable
p1187
sbag1
(g8
g3
NtRp1188
(dp1189
g11
Vitalic
p1190
sg13
S'Courier'
p1191
sg15
I500
sg16
g1185
sg17
g1185
sg18
g1094
sg20
g1187
sbag1
(g8
g3
NtRp1192
(dp1193
g11
g1185
sg13
S'Helvetica'
p1194
sg15
I700
sg16
g1185
sg17
g1185
sg18
g1095
sg20
g1187
sbag1
(g8
g3
NtRp1195
(dp1196
g11
g1185
sg13
S'Times'
p1197
sg15
I700
sg16
g1185
sg17
g1185
sg18
g1096
sg20
g1187
sbag1
(g8
g3
NtRp1198
(dp1199
g11
g1190
sg13
S'ITC Bookman'
p1200
sg15
I200
sg16
g1185
sg17
g1185
sg18
g1097
sg20
g1187
sbag1
(g8
g3
NtRp1201
(dp1202
g11
g1190
sg13
S'Courier'
p1203
sg15
I700
sg16
g1185
sg17
g1185
sg18
g1098
sg20
g1187
sbag1
(g8
g3
NtRp1204
(dp1205
g11
g1185
sg13
S'Helvetica'
p1206
sg15
I500
sg16
Vcondensed
p1207
sg17
g1185
sg18
g1099
sg20
g1187
sbag1
(g8
g3
NtRp1208
(dp1209
g11
g1185
sg13
S'Courier'
p1210
sg15
I500
sg16
g1185
sg17
g1185
sg18
g1100
sg20
g1187
sbag1
(g8
g3
NtRp1211
(dp1212
g11
g1190
sg13
S'Times'
p1213
sg15
I500
sg16
g1185
sg17
g1185
sg18
g1101
sg20
g1187
sbag1
(g8
g3
NtRp1214
(dp1215
g11
g1185
sg13
S'Computer Modern'
p1216
sg15
I500
sg16
g1185
sg17
g1185
sg18
g1102
sg20
g1187
sbag1
(g8
g3
NtRp1217
(dp1218
g11
g1185
sg13
S'ITC Zapf Dingbats'
p1219
sg15
I500
sg16
g1185
sg17
g1185
sg18
g1103
sg20
g1187
sbag1
(g8
g3
NtRp1220
(dp1221
g11
g1185
sg13
S'Helvetica'
p1222
sg15
I500
sg16
g1185
sg17
g1185
sg18
g1104
sg20
g1187
sbag1
(g8
g3
NtRp1223
(dp1224
g11
g1190
sg13
S'New Century Schoolbook'
p1225
sg15
I700
sg16
g1185
sg17
g1185
sg18
g1105
sg20
g1187
sbag1
(g8
g3
NtRp1226
(dp1227
g11
g1190
sg13
S'Helvetica'
p1228
sg15
I700
sg16
g1207
sg17
g1185
sg18
g1106
sg20
g1187
sbag1
(g8
g3
NtRp1229
(dp1230
g11
g1185
sg13
S'ITC Avant Garde Gothic'
p1231
sg15
I600
sg16
g1185
sg17
g1185
sg18
g1107
sg20
g1187
sbag1
(g8
g3
NtRp1232
(dp1233
g11
g1190
sg13
S'Palatino'
p1234
sg15
I700
sg16
g1185
sg17
g1185
sg18
g1108
sg20
g1187
sbag1
(g8
g3
NtRp1235
(dp1236
g11
g1185
sg13
S'Computer Modern'
p1237
sg15
I500
sg16
g1185
sg17
g1185
sg18
g1109
sg20
g1187
sbag1
(g8
g3
NtRp1238
(dp1239
g11
g1190
sg13
S'Utopia'
p1240
sg15
I400
sg16
g1185
sg17
g1185
sg18
g1110
sg20
g1187
sbag1
(g8
g3
NtRp1241
(dp1242
g11
g1185
sg13
S'Palatino'
p1243
sg15
I500
sg16
g1185
sg17
g1185
sg18
g1111
sg20
g1187
sbag1
(g8
g3
NtRp1244
(dp1245
g11
g1190
sg13
S'Computer Modern'
p1246
sg15
I500
sg16
g1185
sg17
g1185
sg18
g1112
sg20
g1187
sbag1
(g8
g3
NtRp1247
(dp1248
g11
g1185
sg13
S'Utopia'
p1249
sg15
I700
sg16
g1185
sg17
g1185
sg18
g1113
sg20
g1187
sbag1
(g8
g3
NtRp1250
(dp1251
g11
g1185
sg13
S'Helvetica'
p1252
sg15
I500
sg16
g1185
sg17
g1185
sg18
g1114
sg20
g1187
sbag1
(g8
g3
NtRp1253
(dp1254
g11
g1185
sg13
S'Palatino'
p1255
sg15
I700
sg16
g1185
sg17
g1185
sg18
g1115
sg20
g1187
sbag1
(g8
g3
NtRp1256
(dp1257
g11
g1185
sg13
S'Helvetica'
p1258
sg15
I700
sg16
g1207
sg17
g1185
sg18
g1116
sg20
g1187
sbag1
(g8
g3
NtRp1259
(dp1260
g11
g1185
sg13
S'Utopia'
p1261
sg15
I400
sg16
g1185
sg17
g1185
sg18
g1117
sg20
g1187
sbag1
(g8
g3
NtRp1262
(dp1263
g11
g1190
sg13
S'Helvetica'
p1264
sg15
I500
sg16
g1185
sg17
g1185
sg18
g1118
sg20
g1187
sbag1
(g8
g3
NtRp1265
(dp1266
g11
g1190
sg13
S'Helvetica'
p1267
sg15
I700
sg16
g1185
sg17
g1185
sg18
g1119
sg20
g1187
sbag1
(g8
g3
NtRp1268
(dp1269
g11
g1185
sg13
S'Symbol'
p1270
sg15
I500
sg16
g1185
sg17
g1185
sg18
g1120
sg20
g1187
sbag1
(g8
g3
NtRp1271
(dp1272
g11
g1190
sg13
S'Palatino'
p1273
sg15
I500
sg16
g1185
sg17
g1185
sg18
g1121
sg20
g1187
sbag1
(g8
g3
NtRp1274
(dp1275
g11
g1190
sg13
S'Times'
p1276
sg15
I500
sg16
g1185
sg17
g1185
sg18
g1122
sg20
g1187
sbag1
(g8
g3
NtRp1277
(dp1278
g11
g1185
sg13
S'Times'
p1279
sg15
I700
sg16
g1185
sg17
g1185
sg18
g1123
sg20
g1187
sbag1
(g8
g3
NtRp1280
(dp1281
g11
g1185
sg13
S'Times'
p1282
sg15
I500
sg16
g1185
sg17
g1185
sg18
g1124
sg20
g1187
sbag1
(g8
g3
NtRp1283
(dp1284
g11
g1185
sg13
S'Helvetica'
p1285
sg15
I200
sg16
g1185
sg17
g1185
sg18
g1125
sg20
g1187
sbag1
(g8
g3
NtRp1286
(dp1287
g11
g1190
sg13
S'Utopia'
p1288
sg15
I700
sg16
g1185
sg17
g1185
sg18
g1126
sg20
g1187
sbag1
(g8
g3
NtRp1289
(dp1290
g11
g1190
sg13
S'New Century Schoolbook'
p1291
sg15
I500
sg16
g1185
sg17
g1185
sg18
g1127
sg20
g1187
sbag1
(g8
g3
NtRp1292
(dp1293
g11
g1185
sg13
S'Computer Modern'
p1294
sg15
I500
sg16
g1185
sg17
g1185
sg18
g1128
sg20
g1187
sbag1
(g8
g3
NtRp1295
(dp1296
g11
g1185
sg13
S'ITC Bookman'
p1297
sg15
I200
sg16
g1185
sg17
g1185
sg18
g1129
sg20
g1187
sbag1
(g8
g3
NtRp1298
(dp1299
g11
g1190
sg13
S'Helvetica'
p1300
sg15
I500
sg16
g1185
sg17
g1185
sg18
g1130
sg20
g1187
sbag1
(g8
g3
NtRp1301
(dp1302
g11
g1190
sg13
S'Times'
p1303
sg15
I700
sg16
g1185
sg17
g1185
sg18
g1131
sg20
g1187
sbag1
(g8
g3
NtRp1304
(dp1305
g11
g1190
sg13
S'Helvetica'
p1306
sg15
I200
sg16
g1185
sg17
g1185
sg18
g1132
sg20
g1187
sbag1
(g8
g3
NtRp1307
(dp1308
g11
g1190
sg13
S'Courier'
p1309
sg15
I700
sg16
g1185
sg17
g1185
sg18
g1133
sg20
g1187
sbag1
(g8
g3
NtRp1310
(dp1311
g11
g1185
sg13
S'Courier'
p1312
sg15
I700
sg16
g1185
sg17
g1185
sg18
g1134
sg20
g1187
sbag1
(g8
g3
NtRp1313
(dp1314
g11
g1190
sg13
S'Helvetica'
p1315
sg15
I500
sg16
g1207
sg17
g1185
sg18
g1135
sg20
g1187
sbag1
(g8
g3
NtRp1316
(dp1317
g11
g1190
sg13
S'Times'
p1318
sg15
I700
sg16
g1185
sg17
g1185
sg18
g1136
sg20
g1187
sbag1
(g8
g3
NtRp1319
(dp1320
g11
g1185
sg13
S'Courier'
p1321
sg15
I700
sg16
g1185
sg17
g1185
sg18
g1137
sg20
g1187
sbag1
(g8
g3
NtRp1322
(dp1323
g11
g1190
sg13
S'Helvetica'
p1324
sg15
I700
sg16
g1185
sg17
g1185
sg18
g1138
sg20
g1187
sbag1
(g8
g3
NtRp1325
(dp1326
g11
g1185
sg13
S'New Century Schoolbook'
p1327
sg15
I500
sg16
g1185
sg17
g1185
sg18
g1139
sg20
g1187
sbag1
(g8
g3
NtRp1328
(dp1329
g11
g1185
sg13
S'Symbol'
p1330
sg15
I500
sg16
g1185
sg17
g1185
sg18
g1140
sg20
g1187
sbag1
(g8
g3
NtRp1331
(dp1332
g11
g1190
sg13
S'Courier'
p1333
sg15
I500
sg16
g1185
sg17
g1185
sg18
g1141
sg20
g1187
sbag1
(g8
g3
NtRp1334
(dp1335
g11
g1185
sg13
S'ZapfDingbats'
p1336
sg15
I500
sg16
g1185
sg17
g1185
sg18
g1142
sg20
g1187
sbag1
(g8
g3
NtRp1337
(dp1338
g11
g1190
sg13
S'Computer Modern'
p1339
sg15
I500
sg16
g1185
sg17
g1185
sg18
g1143
sg20
g1187
sbag1
(g8
g3
NtRp1340
(dp1341
g11
g1185
sg13
S'Courier'
p1342
sg15
I500
sg16
g1185
sg17
g1185
sg18
g1144
sg20
g1187
sbag1
(g8
g3
NtRp1343
(dp1344
g11
g1185
sg13
S'New Century Schoolbook'
p1345
sg15
I700
sg16
g1185
sg17
g1185
sg18
g1145
sg20
g1187
sbag1
(g8
g3
NtRp1346
(dp1347
g11
g1185
sg13
S'ITC Bookman'
p1348
sg15
I600
sg16
g1185
sg17
g1185
sg18
g1146
sg20
g1187
sbag1
(g8
g3
NtRp1349
(dp1350
g11
g1190
sg13
S'ITC Zapf Chancery'
p1351
sg15
I500
sg16
g1185
sg17
g1185
sg18
g1147
sg20
g1187
sbag1
(g8
g3
NtRp1352
(dp1353
g11
g1190
sg13
S'ITC Avant Garde Gothic'
p1354
sg15
I400
sg16
g1185
sg17
g1185
sg18
g1148
sg20
g1187
sbag1
(g8
g3
NtRp1355
(dp1356
g11
g1185
sg13
S'Times'
p1357
sg15
I500
sg16
g1185
sg17
g1185
sg18
g1149
sg20
g1187
sbag1
(g8
g3
NtRp1358
(dp1359
g11
g1185
sg13
S'ITC Avant Garde Gothic'
p1360
sg15
I400
sg16
g1185
sg17
g1185
sg18
g1150
sg20
g1187
sbag1
(g8
g3
NtRp1361
(dp1362
g11
g1190
sg13
S'ITC Avant Garde Gothic'
p1363
sg15
I600
sg16
g1185
sg17
g1185
sg18
g1151
sg20
g1187
sbag1
(g8
g3
NtRp1364
(dp1365
g11
g1190
sg13
S'ITC Bookman'
p1366
sg15
I600
sg16
g1185
sg17
g1185
sg18
g1152
sg20
g1187
sbag1
(g8
g3
NtRp1367
(dp1368
g11
g1185
sg13
S'Utopia'
p1369
sg15
I700
sg16
g1185
sg17
g1185
sg18
g1153
sg20
g1187
sbag1
(g8
g3
NtRp1370
(dp1371
g11
g1185
sg13
S'Courier 10 Pitch'
p1372
sg15
I700
sg16
g1185
sg17
g1185
sg18
g1154
sg20
g1187
sbag1
(g8
g3
NtRp1373
(dp1374
g11
g1190
sg13
S'Luxi Serif'
p1375
sg15
I700
sg16
g1185
sg17
g1185
sg18
g1155
sg20
g1187
sbag1
(g8
g3
NtRp1376
(dp1377
g11
g1190
sg13
S'Bitstream Charter'
p1378
sg15
I400
sg16
g1185
sg17
g1185
sg18
g1156
sg20
g1187
sbag1
(g8
g3
NtRp1379
(dp1380
g11
g1185
sg13
S'Utopia'
p1381
sg15
I400
sg16
g1185
sg17
g1185
sg18
g1157
sg20
g1187
sbag1
(g8
g3
NtRp1382
(dp1383
g11
g1190
sg13
S'Courier 10 Pitch'
p1384
sg15
I400
sg16
g1185
sg17
g1185
sg18
g1158
sg20
g1187
sbag1
(g8
g3
NtRp1385
(dp1386
g11
g1185
sg13
S'Bitstream Charter'
p1387
sg15
I400
sg16
g1185
sg17
g1185
sg18
g1159
sg20
g1187
sbag1
(g8
g3
NtRp1388
(dp1389
g11
g1190
sg13
S'Bitstream Charter'
p1390
sg15
I700
sg16
g1185
sg17
g1185
sg18
g1160
sg20
g1187
sbag1
(g8
g3
NtRp1391
(dp1392
g11
g1185
sg13
S'Luxi Sans'
p1393
sg15
I400
sg16
g1185
sg17
g1185
sg18
g1161
sg20
g1187
sbag1
(g8
g3
NtRp1394
(dp1395
g11
g1185
sg13
S'Courier'
p1396
sg15
I700
sg16
g1185
sg17
g1185
sg18
g1162
sg20
g1187
sbag1
(g8
g3
NtRp1397
(dp1398
g11
g1185
sg13
S'Courier 10 Pitch'
p1399
sg15
I400
sg16
g1185
sg17
g1185
sg18
g1163
sg20
g1187
sbag1
(g8
g3
NtRp1400
(dp1401
g11
g1190
sg13
S'Utopia'
p1402
sg15
I400
sg16
g1185
sg17
g1185
sg18
g1164
sg20
g1187
sbag1
(g8
g3
NtRp1403
(dp1404
g11
g1185
sg13
S'Luxi Serif'
p1405
sg15
I700
sg16
g1185
sg17
g1185
sg18
g1165
sg20
g1187
sbag1
(g8
g3
NtRp1406
(dp1407
g11
g1190
sg13
S'Luxi Sans'
p1408
sg15
I400
sg16
g1185
sg17
g1185
sg18
g1166
sg20
g1187
sbag1
(g8
g3
NtRp1409
(dp1410
g11
g1185
sg13
S'Luxi Sans'
p1411
sg15
I700
sg16
g1185
sg17
g1185
sg18
g1167
sg20
g1187
sbag1
(g8
g3
NtRp1412
(dp1413
g11
g1190
sg13
S'Luxi Sans'
p1414
sg15
I700
sg16
g1185
sg17
g1185
sg18
g1168
sg20
g1187
sbag1
(g8
g3
NtRp1415
(dp1416
g11
g1190
sg13
S'Courier'
p1417
sg15
I700
sg16
g1185
sg17
g1185
sg18
g1169
sg20
g1187
sbag1
(g8
g3
NtRp1418
(dp1419
g11
g1185
sg13
S'Bitstream Charter'
p1420
sg15
I700
sg16
g1185
sg17
g1185
sg18
g1170
sg20
g1187
sbag1
(g8
g3
NtRp1421
(dp1422
g11
g1185
sg13
S'Luxi Serif'
p1423
sg15
I400
sg16
g1185
sg17
g1185
sg18
g1171
sg20
g1187
sbag1
(g8
g3
NtRp1424
(dp1425
g11
g1190
sg13
S'Courier 10 Pitch'
p1426
sg15
I700
sg16
g1185
sg17
g1185
sg18
g1172
sg20
g1187
sbag1
(g8
g3
NtRp1427
(dp1428
g11
g1190
sg13
S'Luxi Mono'
p1429
sg15
I700
sg16
g1185
sg17
g1185
sg18
g1173
sg20
g1187
sbag1
(g8
g3
NtRp1430
(dp1431
g11
g1185
sg13
S'Luxi Mono'
p1432
sg15
I700
sg16
g1185
sg17
g1185
sg18
g1174
sg20
g1187
sbag1
(g8
g3
NtRp1433
(dp1434
g11
g1190
sg13
S'Luxi Mono'
p1435
sg15
I400
sg16
g1185
sg17
g1185
sg18
g1175
sg20
g1187
sbag1
(g8
g3
NtRp1436
(dp1437
g11
g1185
sg13
S'Luxi Mono'
p1438
sg15
I400
sg16
g1185
sg17
g1185
sg18
g1176
sg20
g1187
sbag1
(g8
g3
NtRp1439
(dp1440
g11
g1190
sg13
S'Luxi Serif'
p1441
sg15
I400
sg16
g1185
sg17
g1185
sg18
g1177
sg20
g1187
sbag1
(g8
g3
NtRp1442
(dp1443
g11
g1190
sg13
S'Utopia'
p1444
sg15
I700
sg16
g1185
sg17
g1185
sg18
g1178
sg20
g1187
sbag1
(g8
g3
NtRp1445
(dp1446
g11
g1185
sg13
S'Courier'
p1447
sg15
I400
sg16
g1185
sg17
g1185
sg18
g1179
sg20
g1187
sbag1
(g8
g3
NtRp1448
(dp1449
g11
g1190
sg13
S'Courier'
p1450
sg15
I400
sg16
g1185
sg17
g1185
sg18
g1180
sg20
g1187
sbasb.