(imatplotlib.font_manager
FontManager
p1
(dp2
S'afm_lookup_cache'
p3
(dp4
sS'ttflist'
p5
(lp6
ccopy_reg
_reconstructor
p7
(cmatplotlib.font_manager
FontEntry
p8
c__builtin__
object
p9
NtRp10
(dp11
S'style'
p12
S'italic'
p13
sS'name'
p14
S'STIXGeneral'
p15
sS'weight'
p16
I700
sS'stretch'
p17
S'normal'
p18
sS'variant'
p19
g18
sS'fname'
p20
S'/usr/lib64/python2.7/site-packages/matplotlib/mpl-data/fonts/ttf/STIXGeneralBolIta.ttf'
p21
sS'size'
p22
S'scalable'
p23
sbag7
(g8
g9
NtRp24
(dp25
g12
g18
sg14
S'cmb10'
p26
sg16
I400
sg17
g18
sg19
g18
sg20
S'/usr/lib64/python2.7/site-packages/matplotlib/mpl-data/fonts/ttf/cmb10.ttf'
p27
sg22
g23
sbag7
(g8
g9
NtRp28
(dp29
g12
S'oblique'
p30
sg14
S'Bitstream Vera Sans Mono'
p31
sg16
I400
sg17
g18
sg19
g18
sg20
S'/usr/lib64/python2.7/site-packages/matplotlib/mpl-data/fonts/ttf/VeraMoIt.ttf'
p32
sg22
g23
sbag7
(g8
g9
NtRp33
(dp34
g12
g18
sg14
S'STIXSizeFourSym'
p35
sg16
I700
sg17
g18
sg19
g18
sg20
S'/usr/lib64/python2.7/site-packages/matplotlib/mpl-data/fonts/ttf/STIXSizFourSymBol.ttf'
p36
sg22
g23
sbag7
(g8
g9
NtRp37
(dp38
g12
g18
sg14
S'Bitstream Vera Sans Mono'
p39
sg16
I700
sg17
g18
sg19
g18
sg20
S'/usr/lib64/python2.7/site-packages/matplotlib/mpl-data/fonts/ttf/VeraMoBd.ttf'
p40
sg22
g23
sbag7
(g8
g9
NtRp41
(dp42
g12
g18
sg14
S'Bitstream Vera Sans'
p43
sg16
I400
sg17
g18
sg19
g18
sg20
S'/usr/lib64/python2.7/site-packages/matplotlib/mpl-data/fonts/ttf/Vera.ttf'
p44
sg22
g23
sbag7
(g8
g9
NtRp45
(dp46
g12
g13
sg14
S'STIXGeneral'
p47
sg16
I400
sg17
g18
sg19
g18
sg20
S'/usr/lib64/python2.7/site-packages/matplotlib/mpl-data/fonts/ttf/STIXGeneralItalic.ttf'
p48
sg22
g23
sbag7
(g8
g9
NtRp49
(dp50
g12
g18
sg14
S'STIXSizeTwoSym'
p51
sg16
I400
sg17
g18
sg19
g18
sg20
S'/usr/lib64/python2.7/site-packages/matplotlib/mpl-data/fonts/ttf/STIXSizTwoSymReg.ttf'
p52
sg22
g23
sbag7
(g8
g9
NtRp53
(dp54
g12
g18
sg14
S'STIXSizeFourSym'
p55
sg16
I400
sg17
g18
sg19
g18
sg20
S'/usr/lib64/python2.7/site-packages/matplotlib/mpl-data/fonts/ttf/STIXSizFourSymReg.ttf'
p56
sg22
g23
sbag7
(g8
g9
NtRp57
(dp58
g12
g18
sg14
S'cmss10'
p59
sg16
I400
sg17
g18
sg19
g18
sg20
S'/usr/lib64/python2.7/site-packages/matplotlib/mpl-data/fonts/ttf/cmss10.ttf'
p60
sg22
g23
sbag7
(g8
g9
NtRp61
(dp62
g12
g18
sg14
S'STIXSizeThreeSym'
p63
sg16
I700
sg17
g18
sg19
g18
sg20
S'/usr/lib64/python2.7/site-packages/matplotlib/mpl-data/fonts/ttf/STIXSizThreeSymBol.ttf'
p64
sg22
g23
sbag7
(g8
g9
NtRp65
(dp66
g12
g30
sg14
S'Bitstream Vera Sans Mono'
p67
sg16
I700
sg17
g18
sg19
g18
sg20
S'/usr/lib64/python2.7/site-packages/matplotlib/mpl-data/fonts/ttf/VeraMoBI.ttf'
p68
sg22
g23
sbag7
(g8
g9
NtRp69
(dp70
g12
g18
sg14
S'Bitstream Vera Serif'
p71
sg16
I700
sg17
g18
sg19
g18
sg20
S'/usr/lib64/python2.7/site-packages/matplotlib/mpl-data/fonts/ttf/VeraSeBd.ttf'
p72
sg22
g23
sbag7
(g8
g9
NtRp73
(dp74
g12
g18
sg14
S'Bitstream Vera Serif'
p75
sg16
I400
sg17
g18
sg19
g18
sg20
S'/usr/lib64/python2.7/site-packages/matplotlib/mpl-data/fonts/ttf/VeraSe.ttf'
p76
sg22
g23
sbag7
(g8
g9
NtRp77
(dp78
g12
g18
sg14
S'STIXNonUnicode'
p79
sg16
I400
sg17
g18
sg19
g18
sg20
S'/usr/lib64/python2.7/site-packages/matplotlib/mpl-data/fonts/ttf/STIXNonUni.ttf'
p80
sg22
g23
sbag7
(g8
g9
NtRp81
(dp82
g12
g18
sg14
S'cmr10'
p83
sg16
I400
sg17
g18
sg19
g18
sg20
S'/usr/lib64/python2.7/site-packages/matplotlib/mpl-data/fonts/ttf/cmr10.ttf'
p84
sg22
g23
sbag7
(g8
g9
NtRp85
(dp86
g12
g18
sg14
S'cmtt10'
p87
sg16
I400
sg17
g18
sg19
g18
sg20
S'/usr/lib64/python2.7/site-packages/matplotlib/mpl-data/fonts/ttf/cmtt10.ttf'
p88
sg22
g23
sbag7
(g8
g9
NtRp89
(dp90
g12
g30
sg14
S'Bitstream Vera Sans'
p91
sg16
I700
sg17
g18
sg19
g18
sg20
S'/usr/lib64/python2.7/site-packages/matplotlib/mpl-data/fonts/ttf/VeraBI.ttf'
p92
sg22
g23
sbag7
(g8
g9
NtRp93
(dp94
g12
g18
sg14
S'STIXSizeOneSym'
p95
sg16
I400
sg17
g18
sg19
g18
sg20
S'/usr/lib64/python2.7/site-packages/matplotlib/mpl-data/fonts/ttf/STIXSizOneSymReg.ttf'
p96
sg22
g23
sbag7
(g8
g9
NtRp97
(dp98
g12
g18
sg14
S'STIXGeneral'
p99
sg16
I700
sg17
g18
sg19
g18
sg20
S'/usr/lib64/python2.7/site-packages/matplotlib/mpl-data/fonts/ttf/STIXGeneralBol.ttf'
p100
sg22
g23
sbag7
(g8
g9
NtRp101
(dp102
g12
g18
sg14
S'STIXSizeThreeSym'
p103
sg16
I400
sg17
g18
sg19
g18
sg20
S'/usr/lib64/python2.7/site-packages/matplotlib/mpl-data/fonts/ttf/STIXSizThreeSymReg.ttf'
p104
sg22
g23
sbag7
(g8
g9
NtRp105
(dp106
g12
g18
sg14
S'STIXSizeFiveSym'
p107
sg16
I400
sg17
g18
sg19
g18
sg20
S'/usr/lib64/python2.7/site-packages/matplotlib/mpl-data/fonts/ttf/STIXSizFiveSymReg.ttf'
p108
sg22
g23
sbag7
(g8
g9
NtRp109
(dp110
g12
g18
sg14
S'Bitstream Vera Sans'
p111
sg16
I700
sg17
g18
sg19
g18
sg20
S'/usr/lib64/python2.7/site-packages/matplotlib/mpl-data/fonts/ttf/VeraBd.ttf'
p112
sg22
g23
sbag7
(g8
g9
NtRp113
(dp114
g12
g18
sg14
S'STIXNonUnicode'
p115
sg16
I700
sg17
g18
sg19
g18
sg20
S'/usr/lib64/python2.7/site-packages/matplotlib/mpl-data/fonts/ttf/STIXNonUniBol.ttf'
p116
sg22
g23
sbag7
(g8
g9
NtRp117
(dp118
g12
g18
sg14
S'cmmi10'
p119
sg16
I400
sg17
g18
sg19
g18
sg20
S'/usr/lib64/python2.7/site-packages/matplotlib/mpl-data/fonts/ttf/cmmi10.ttf'
p120
sg22
g23
sbag7
(g8
g9
NtRp121
(dp122
g12
g18
sg14
S'cmsy10'
p123
sg16
I400
sg17
g18
sg19
g18
sg20
S'/usr/lib64/python2.7/site-packages/matplotlib/mpl-data/fonts/ttf/cmsy10.ttf'
p124
sg22
g23
sbag7
(g8
g9
NtRp125
(dp126
g12
g18
sg14
S'Bitstream Vera Sans Mono'
p127
sg16
I400
sg17
g18
sg19
g18
sg20
S'/usr/lib64/python2.7/site-packages/matplotlib/mpl-data/fonts/ttf/VeraMono.ttf'
p128
sg22
g23
sbag7
(g8
g9
NtRp129
(dp130
g12
g18
sg14
S'STIXGeneral'
p131
sg16
I400
sg17
g18
sg19
g18
sg20
S'/usr/lib64/python2.7/site-packages/matplotlib/mpl-data/fonts/ttf/STIXGeneral.ttf'
p132
sg22
g23
sbag7
(g8
g9
NtRp133
(dp134
g12
g18
sg14
S'cmex10'
p135
sg16
I400
sg17
g18
sg19
g18
sg20
S'/usr/lib64/python2.7/site-packages/matplotlib/mpl-data/fonts/ttf/cmex10.ttf'
p136
sg22
g23
sbag7
(g8
g9
NtRp137
(dp138
g12
g13
sg14
S'STIXNonUnicode'
p139
sg16
I700
sg17
g18
sg19
g18
sg20
S'/usr/lib64/python2.7/site-packages/matplotlib/mpl-data/fonts/ttf/STIXNonUniBolIta.ttf'
p140
sg22
g23
sbag7
(g8
g9
NtRp141
(dp142
g12
g30
sg14
S'Bitstream Vera Sans'
p143
sg16
I400
sg17
g18
sg19
g18
sg20
S'/usr/lib64/python2.7/site-packages/matplotlib/mpl-data/fonts/ttf/VeraIt.ttf'
p144
sg22
g23
sbag7
(g8
g9
NtRp145
(dp146
g12
g13
sg14
S'STIXNonUnicode'
p147
sg16
I400
sg17
g18
sg19
g18
sg20
S'/usr/lib64/python2.7/site-packages/matplotlib/mpl-data/fonts/ttf/STIXNonUniIta.ttf'
p148
sg22
g23
sbag7
(g8
g9
NtRp149
(dp150
g12
g18
sg14
S'STIXSizeTwoSym'
p151
sg16
I700
sg17
g18
sg19
g18
sg20
S'/usr/lib64/python2.7/site-packages/matplotlib/mpl-data/fonts/ttf/STIXSizTwoSymBol.ttf'
p152
sg22
g23
sbag7
(g8
g9
NtRp153
(dp154
g12
g18
sg14
S'STIXSizeOneSym'
p155
sg16
I700
sg17
g18
sg19
g18
sg20
S'/usr/lib64/python2.7/site-packages/matplotlib/mpl-data/fonts/ttf/STIXSizOneSymBol.ttf'
p156
sg22
g23
sbag7
(g8
g9
NtRp157
(dp158
g12
g13
sg14
S'STIXNonUnicode'
p159
sg16
I700
sg17
g18
sg19
g18
sg20
S'/usr/share/fonts/stix-fonts/STIXNonUniBolIta.otf'
p160
sg22
g23
sbag7
(g8
g9
NtRp161
(dp162
g12
g18
sg14
S'Serto Batnan'
p163
sg16
I400
sg17
g18
sg19
g18
sg20
S'/usr/share/fonts/OTF/SyrCOMBatnan.otf'
p164
sg22
g23
sbag7
(g8
g9
NtRp165
(dp166
g12
g13
sg14
S'FreeSerif'
p167
sg16
I400
sg17
g18
sg19
g18
sg20
S'/usr/share/fonts/freefont-ttf/FreeSerifItalic.ttf'
p168
sg22
g23
sbag7
(g8
g9
NtRp169
(dp170
g12
g18
sg14
S'Ubuntu Condensed'
p171
sg16
I400
sg17
S'condensed'
p172
sg19
g18
sg20
S'/usr/share/fonts/ubuntu-font-family/Ubuntu-C.ttf'
p173
sg22
g23
sbag7
(g8
g9
NtRp174
(dp175
g12
g13
sg14
S'Courier New'
p176
sg16
I700
sg17
g18
sg19
g18
sg20
S'/usr/share/fonts/corefonts/courbi.ttf'
p177
sg22
g23
sbag7
(g8
g9
NtRp178
(dp179
g12
g18
sg14
S'STIXIntegralsUpSm'
p180
sg16
I700
sg17
g18
sg19
g18
sg20
S'/usr/share/fonts/stix-fonts/STIXIntUpSmBol.otf'
p181
sg22
g23
sbag7
(g8
g9
NtRp182
(dp183
g12
g18
sg14
S'Impact'
p184
sg16
I400
sg17
g18
sg19
g18
sg20
S'/usr/share/fonts/corefonts/impact.ttf'
p185
sg22
g23
sbag7
(g8
g9
NtRp186
(dp187
g12
g18
sg14
S'Serto Mardin'
p188
sg16
I400
sg17
g18
sg19
g18
sg20
S'/usr/share/fonts/OTF/SyrCOMMardin.otf'
p189
sg22
g23
sbag7
(g8
g9
NtRp190
(dp191
g12
g18
sg14
S'STIXIntegralsUp'
p192
sg16
I700
sg17
g18
sg19
g18
sg20
S'/usr/share/fonts/stix-fonts/STIXIntUpBol.otf'
p193
sg22
g23
sbag7
(g8
g9
NtRp194
(dp195
g12
g13
sg14
S'Ubuntu'
p196
sg16
I200
sg17
g18
sg19
g18
sg20
S'/usr/share/fonts/ubuntu-font-family/Ubuntu-LI.ttf'
p197
sg22
g23
sbag7
(g8
g9
NtRp198
(dp199
g12
g18
sg14
S'STIXGeneral'
p200
sg16
I400
sg17
g18
sg19
g18
sg20
S'/usr/share/fonts/stix-fonts/STIXGeneral.otf'
p201
sg22
g23
sbag7
(g8
g9
NtRp202
(dp203
g12
g18
sg14
S'STIXNonUnicode'
p204
sg16
I400
sg17
g18
sg19
g18
sg20
S'/usr/share/fonts/stix-fonts/STIXNonUni.otf'
p205
sg22
g23
sbag7
(g8
g9
NtRp206
(dp207
g12
g13
sg14
S'Ubuntu Mono'
p208
sg16
I700
sg17
g18
sg19
g18
sg20
S'/usr/share/fonts/ubuntu-font-family/UbuntuMono-BI.ttf'
p209
sg22
g23
sbag7
(g8
g9
NtRp210
(dp211
g12
g18
sg14
S'Luxi Sans'
p212
sg16
I700
sg17
g18
sg19
g18
sg20
S'/usr/share/fonts/TTF/luxisb.ttf'
p213
sg22
g23
sbag7
(g8
g9
NtRp214
(dp215
g12
g13
sg14
S'Trebuchet MS'
p216
sg16
I700
sg17
g18
sg19
g18
sg20
S'/usr/share/fonts/corefonts/trebucbi.ttf'
p217
sg22
g23
sbag7
(g8
g9
NtRp218
(dp219
g12
g18
sg14
S'mikachan_o-P'
p220
sg16
I400
sg17
g18
sg19
g18
sg20
S'/usr/share/fonts/mikachan-font-otf/mikachan-p.otf'
p221
sg22
g23
sbag7
(g8
g9
NtRp222
(dp223
g12
g18
sg14
S'Georgia'
p224
sg16
I700
sg17
g18
sg19
g18
sg20
S'/usr/share/fonts/corefonts/georgiab.ttf'
p225
sg22
g23
sbag7
(g8
g9
NtRp226
(dp227
g12
g18
sg14
S'STIXGeneral'
p228
sg16
I700
sg17
g18
sg19
g18
sg20
S'/usr/share/fonts/stix-fonts/STIXGeneralBol.otf'
p229
sg22
g23
sbag7
(g8
g9
NtRp230
(dp231
g12
g18
sg14
S'Arial Black'
p232
sg16
I900
sg17
g18
sg19
g18
sg20
S'/usr/share/fonts/corefonts/ariblk.ttf'
p233
sg22
g23
sbag7
(g8
g9
NtRp234
(dp235
g12
g18
sg14
S'DejaVu Sans'
p236
sg16
I700
sg17
g18
sg19
g18
sg20
S'/usr/share/fonts/dejavu/DejaVuSans-Bold.ttf'
p237
sg22
g23
sbag7
(g8
g9
NtRp238
(dp239
g12
g18
sg14
S'STIXSizeFourSym'
p240
sg16
I400
sg17
g18
sg19
g18
sg20
S'/usr/share/fonts/stix-fonts/STIXSizFourSymReg.otf'
p241
sg22
g23
sbag7
(g8
g9
NtRp242
(dp243
g12
g18
sg14
S'mikachan-PS'
p244
sg16
I400
sg17
g18
sg19
g18
sg20
S'/usr/share/fonts/mikachan-font-ttf/mikachan-PS.ttf'
p245
sg22
g23
sbag7
(g8
g9
NtRp246
(dp247
g12
g18
sg14
S'Ubuntu Mono'
p248
sg16
I700
sg17
g18
sg19
g18
sg20
S'/usr/share/fonts/ubuntu-font-family/UbuntuMono-B.ttf'
p249
sg22
g23
sbag7
(g8
g9
NtRp250
(dp251
g12
g18
sg14
S'STIXSizeFourSym'
p252
sg16
I700
sg17
g18
sg19
g18
sg20
S'/usr/share/fonts/stix-fonts/STIXSizFourSymBol.otf'
p253
sg22
g23
sbag7
(g8
g9
NtRp254
(dp255
g12
g30
sg14
S'FreeMono'
p256
sg16
I700
sg17
g18
sg19
g18
sg20
S'/usr/share/fonts/freefont-ttf/FreeMonoBoldOblique.ttf'
p257
sg22
g23
sbag7
(g8
g9
NtRp258
(dp259
g12
g13
sg14
S'Georgia'
p260
sg16
I400
sg17
g18
sg19
g18
sg20
S'/usr/share/fonts/corefonts/georgiai.ttf'
p261
sg22
g23
sbag7
(g8
g9
NtRp262
(dp263
g12
g18
sg14
S'Estrangelo Nisibin Outline'
p264
sg16
I400
sg17
g18
sg19
g18
sg20
S'/usr/share/fonts/OTF/SyrCOMNisibinOutline.otf'
p265
sg22
g23
sbag7
(g8
g9
NtRp266
(dp267
g12
g18
sg14
S'DejaVu Sans'
p268
sg16
I400
sg17
g172
sg19
g18
sg20
S'/usr/share/fonts/dejavu/DejaVuSansCondensed.ttf'
p269
sg22
g23
sbag7
(g8
g9
NtRp270
(dp271
g12
g30
sg14
S'FreeMono'
p272
sg16
I400
sg17
g18
sg19
g18
sg20
S'/usr/share/fonts/freefont-ttf/FreeMonoOblique.ttf'
p273
sg22
g23
sbag7
(g8
g9
NtRp274
(dp275
g12
g18
sg14
S'Menlo for Powerline'
p276
sg16
I400
sg17
g18
sg19
g18
sg20
S'/home/npinto/.fonts/Menlo-Powerline.otf'
p277
sg22
g23
sbag7
(g8
g9
NtRp278
(dp279
g12
g30
sg14
S'Luxi Serif'
p280
sg16
I400
sg17
g18
sg19
g18
sg20
S'/usr/share/fonts/TTF/luxirri.ttf'
p281
sg22
g23
sbag7
(g8
g9
NtRp282
(dp283
g12
g18
sg14
S'Estrangelo Quenneshrin'
p284
sg16
I400
sg17
g18
sg19
g18
sg20
S'/usr/share/fonts/OTF/SyrCOMQenNeshrin.otf'
p285
sg22
g23
sbag7
(g8
g9
NtRp286
(dp287
g12
g30
sg14
S'DejaVu Sans'
p288
sg16
I400
sg17
g172
sg19
g18
sg20
S'/usr/share/fonts/dejavu/DejaVuSansCondensed-Oblique.ttf'
p289
sg22
g23
sbag7
(g8
g9
NtRp290
(dp291
g12
g18
sg14
S'Estrangelo Talada'
p292
sg16
I400
sg17
g18
sg19
g18
sg20
S'/usr/share/fonts/OTF/SyrCOMTalada.otf'
p293
sg22
g23
sbag7
(g8
g9
NtRp294
(dp295
g12
g18
sg14
S'Trebuchet MS'
p296
sg16
I700
sg17
g18
sg19
g18
sg20
S'/usr/share/fonts/corefonts/trebucbd.ttf'
p297
sg22
g23
sbag7
(g8
g9
NtRp298
(dp299
g12
g18
sg14
S'Goha-Tibeb Zemen'
p300
sg16
I400
sg17
g18
sg19
g18
sg20
S'/usr/share/fonts/OTF/GohaTibebZemen.otf'
p301
sg22
g23
sbag7
(g8
g9
NtRp302
(dp303
g12
g18
sg14
S'STIXVariants'
p304
sg16
I700
sg17
g18
sg19
g18
sg20
S'/usr/share/fonts/stix-fonts/STIXVarBol.otf'
p305
sg22
g23
sbag7
(g8
g9
NtRp306
(dp307
g12
g18
sg14
S'Estrangelo Antioch'
p308
sg16
I400
sg17
g18
sg19
g18
sg20
S'/usr/share/fonts/OTF/SyrCOMAntioch.otf'
p309
sg22
g23
sbag7
(g8
g9
NtRp310
(dp311
g12
g18
sg14
S'STIXIntegralsD'
p312
sg16
I400
sg17
g18
sg19
g18
sg20
S'/usr/share/fonts/stix-fonts/STIXIntDReg.otf'
p313
sg22
g23
sbag7
(g8
g9
NtRp314
(dp315
g12
g18
sg14
S'STIXIntegralsUp'
p316
sg16
I400
sg17
g18
sg19
g18
sg20
S'/usr/share/fonts/stix-fonts/STIXIntUpReg.otf'
p317
sg22
g23
sbag7
(g8
g9
NtRp318
(dp319
g12
g13
sg14
S'Courier New'
p320
sg16
I400
sg17
g18
sg19
g18
sg20
S'/usr/share/fonts/corefonts/couri.ttf'
p321
sg22
g23
sbag7
(g8
g9
NtRp322
(dp323
g12
g13
sg14
S'DejaVu Serif'
p324
sg16
I700
sg17
g172
sg19
g18
sg20
S'/usr/share/fonts/dejavu/DejaVuSerifCondensed-BoldItalic.ttf'
p325
sg22
g23
sbag7
(g8
g9
NtRp326
(dp327
g12
g13
sg14
S'Ubuntu'
p328
sg16
I700
sg17
g18
sg19
g18
sg20
S'/usr/share/fonts/ubuntu-font-family/Ubuntu-BI.ttf'
p329
sg22
g23
sbag7
(g8
g9
NtRp330
(dp331
g12
g18
sg14
S'mikachan'
p332
sg16
I400
sg17
g18
sg19
g18
sg20
S'/usr/share/fonts/mikachan-font-ttf/mikachan.ttf'
p333
sg22
g23
sbag7
(g8
g9
NtRp334
(dp335
g12
g18
sg14
S'DejaVu Serif'
p336
sg16
I400
sg17
g18
sg19
g18
sg20
S'/usr/share/fonts/dejavu/DejaVuSerif.ttf'
p337
sg22
g23
sbag7
(g8
g9
NtRp338
(dp339
g12
g13
sg14
S'Verdana'
p340
sg16
I400
sg17
g18
sg19
g18
sg20
S'/usr/share/fonts/corefonts/verdanai.ttf'
p341
sg22
g23
sbag7
(g8
g9
NtRp342
(dp343
g12
g18
sg14
S'Verdana'
p344
sg16
I700
sg17
g18
sg19
g18
sg20
S'/usr/share/fonts/corefonts/verdanab.ttf'
p345
sg22
g23
sbag7
(g8
g9
NtRp346
(dp347
g12
g18
sg14
S'STIXSizeOneSym'
p348
sg16
I700
sg17
g18
sg19
g18
sg20
S'/usr/share/fonts/stix-fonts/STIXSizOneSymBol.otf'
p349
sg22
g23
sbag7
(g8
g9
NtRp350
(dp351
g12
g18
sg14
S'DejaVu Serif'
p352
sg16
I400
sg17
g172
sg19
g18
sg20
S'/usr/share/fonts/dejavu/DejaVuSerifCondensed.ttf'
p353
sg22
g23
sbag7
(g8
g9
NtRp354
(dp355
g12
g18
sg14
S'STIXIntegralsUpD'
p356
sg16
I400
sg17
g18
sg19
g18
sg20
S'/usr/share/fonts/stix-fonts/STIXIntUpDReg.otf'
p357
sg22
g23
sbag7
(g8
g9
NtRp358
(dp359
g12
g18
sg14
S'Serto Jerusalem'
p360
sg16
I700
sg17
g18
sg19
g18
sg20
S'/usr/share/fonts/OTF/SyrCOMJerusalemBold.otf'
p361
sg22
g23
sbag7
(g8
g9
NtRp362
(dp363
g12
g18
sg14
S'DejaVu Serif'
p364
sg16
I700
sg17
g18
sg19
g18
sg20
S'/usr/share/fonts/dejavu/DejaVuSerif-Bold.ttf'
p365
sg22
g23
sbag7
(g8
g9
NtRp366
(dp367
g12
g13
sg14
S'DejaVu Serif'
p368
sg16
I400
sg17
g172
sg19
g18
sg20
S'/usr/share/fonts/dejavu/DejaVuSerifCondensed-Italic.ttf'
p369
sg22
g23
sbag7
(g8
g9
NtRp370
(dp371
g12
g30
sg14
S'Luxi Sans'
p372
sg16
I700
sg17
g18
sg19
g18
sg20
S'/usr/share/fonts/TTF/luxisbi.ttf'
p373
sg22
g23
sbag7
(g8
g9
NtRp374
(dp375
g12
g18
sg14
S'Arial'
p376
sg16
I400
sg17
g18
sg19
g18
sg20
S'/usr/share/fonts/corefonts/arial.ttf'
p377
sg22
g23
sbag7
(g8
g9
NtRp378
(dp379
g12
g18
sg14
S'Serto Jerusalem'
p380
sg16
I400
sg17
g18
sg19
g18
sg20
S'/usr/share/fonts/OTF/SyrCOMJerusalem.otf'
p381
sg22
g23
sbag7
(g8
g9
NtRp382
(dp383
g12
g18
sg14
S'STIXNonUnicode'
p384
sg16
I700
sg17
g18
sg19
g18
sg20
S'/usr/share/fonts/stix-fonts/STIXNonUniBol.otf'
p385
sg22
g23
sbag7
(g8
g9
NtRp386
(dp387
g12
g18
sg14
S'Luxi Mono'
p388
sg16
I700
sg17
g18
sg19
g18
sg20
S'/usr/share/fonts/TTF/luximb.ttf'
p389
sg22
g23
sbag7
(g8
g9
NtRp390
(dp391
g12
g13
sg14
S'Times New Roman'
p392
sg16
I500
sg17
g18
sg19
g18
sg20
S'/usr/share/fonts/corefonts/timesi.ttf'
p393
sg22
g23
sbag7
(g8
g9
NtRp394
(dp395
g12
g18
sg14
S'Estrangelo TurAbdin'
p396
sg16
I400
sg17
g18
sg19
g18
sg20
S'/usr/share/fonts/OTF/SyrCOMTurAbdin.otf'
p397
sg22
g23
sbag7
(g8
g9
NtRp398
(dp399
g12
g30
sg14
S'DejaVu Sans'
p400
sg16
I400
sg17
g18
sg19
g18
sg20
S'/usr/share/fonts/dejavu/DejaVuSans-Oblique.ttf'
p401
sg22
g23
sbag7
(g8
g9
NtRp402
(dp403
g12
g18
sg14
S'STIXIntegralsUpSm'
p404
sg16
I400
sg17
g18
sg19
g18
sg20
S'/usr/share/fonts/stix-fonts/STIXIntUpSmReg.otf'
p405
sg22
g23
sbag7
(g8
g9
NtRp406
(dp407
g12
g30
sg14
S'FreeSans'
p408
sg16
I400
sg17
g18
sg19
g18
sg20
S'/usr/share/fonts/freefont-ttf/FreeSansOblique.ttf'
p409
sg22
g23
sbag7
(g8
g9
NtRp410
(dp411
g12
g18
sg14
S'Luxi Mono'
p412
sg16
I400
sg17
g18
sg19
g18
sg20
S'/usr/share/fonts/TTF/luximr.ttf'
p413
sg22
g23
sbag7
(g8
g9
NtRp414
(dp415
g12
g18
sg14
S'Comic Sans MS'
p416
sg16
I700
sg17
g18
sg19
g18
sg20
S'/usr/share/fonts/corefonts/comicbd.ttf'
p417
sg22
g23
sbag7
(g8
g9
NtRp418
(dp419
g12
g30
sg14
S'FreeSans'
p420
sg16
I700
sg17
g18
sg19
g18
sg20
S'/usr/share/fonts/freefont-ttf/FreeSansBoldOblique.ttf'
p421
sg22
g23
sbag7
(g8
g9
NtRp422
(dp423
g12
g18
sg14
S'Estrangelo Midyat'
p424
sg16
I400
sg17
g18
sg19
g18
sg20
S'/usr/share/fonts/OTF/SyrCOMMidyat.otf'
p425
sg22
g23
sbag7
(g8
g9
NtRp426
(dp427
g12
g13
sg14
S'STIXGeneral'
p428
sg16
I400
sg17
g18
sg19
g18
sg20
S'/usr/share/fonts/stix-fonts/STIXGeneralItalic.otf'
p429
sg22
g23
sbag7
(g8
g9
NtRp430
(dp431
g12
g18
sg14
S'STIXSizeFiveSym'
p432
sg16
I400
sg17
g18
sg19
g18
sg20
S'/usr/share/fonts/stix-fonts/STIXSizFiveSymReg.otf'
p433
sg22
g23
sbag7
(g8
g9
NtRp434
(dp435
g12
g18
sg14
S'mikachan-P'
p436
sg16
I400
sg17
g18
sg19
g18
sg20
S'/usr/share/fonts/mikachan-font-ttf/mikachan-P.ttf'
p437
sg22
g23
sbag7
(g8
g9
NtRp438
(dp439
g12
g18
sg14
S'Ubuntu'
p440
sg16
I400
sg17
g18
sg19
g18
sg20
S'/usr/share/fonts/ubuntu-font-family/Ubuntu-R.ttf'
p441
sg22
g23
sbag7
(g8
g9
NtRp442
(dp443
g12
g18
sg14
S'STIXIntegralsSm'
p444
sg16
I400
sg17
g18
sg19
g18
sg20
S'/usr/share/fonts/stix-fonts/STIXIntSmReg.otf'
p445
sg22
g23
sbag7
(g8
g9
NtRp446
(dp447
g12
g18
sg14
S'Courier New'
p448
sg16
I400
sg17
g18
sg19
g18
sg20
S'/usr/share/fonts/corefonts/cour.ttf'
p449
sg22
g23
sbag7
(g8
g9
NtRp450
(dp451
g12
g18
sg14
S'mikachan_o-PB'
p452
sg16
I400
sg17
g18
sg19
g18
sg20
S'/usr/share/fonts/mikachan-font-otf/mikachan-pb.otf'
p453
sg22
g23
sbag7
(g8
g9
NtRp454
(dp455
g12
g18
sg14
S'mikachan-PB'
p456
sg16
I400
sg17
g18
sg19
g18
sg20
S'/usr/share/fonts/mikachan-font-ttf/mikachan-PB.ttf'
p457
sg22
g23
sbag7
(g8
g9
NtRp458
(dp459
g12
g18
sg14
S'Andale Mono'
p460
sg16
I400
sg17
g18
sg19
g18
sg20
S'/usr/share/fonts/corefonts/andalemo.ttf'
p461
sg22
g23
sbag7
(g8
g9
NtRp462
(dp463
g12
g18
sg14
S'DejaVu Sans Mono'
p464
sg16
I400
sg17
g18
sg19
g18
sg20
S'/usr/share/fonts/dejavu/DejaVuSansMono.ttf'
p465
sg22
g23
sbag7
(g8
g9
NtRp466
(dp467
g12
g13
sg14
S'Georgia'
p468
sg16
I700
sg17
g18
sg19
g18
sg20
S'/usr/share/fonts/corefonts/georgiaz.ttf'
p469
sg22
g23
sbag7
(g8
g9
NtRp470
(dp471
g12
g18
sg14
S'STIXIntegralsD'
p472
sg16
I700
sg17
g18
sg19
g18
sg20
S'/usr/share/fonts/stix-fonts/STIXIntDBol.otf'
p473
sg22
g23
sbag7
(g8
g9
NtRp474
(dp475
g12
g18
sg14
S'Trebuchet MS'
p476
sg16
I400
sg17
g18
sg19
g18
sg20
S'/usr/share/fonts/corefonts/trebuc.ttf'
p477
sg22
g23
sbag7
(g8
g9
NtRp478
(dp479
g12
g18
sg14
S'Ubuntu'
p480
sg16
I200
sg17
g18
sg19
g18
sg20
S'/usr/share/fonts/ubuntu-font-family/Ubuntu-L.ttf'
p481
sg22
g23
sbag7
(g8
g9
NtRp482
(dp483
g12
g18
sg14
S'Ubuntu Mono'
p484
sg16
I400
sg17
g18
sg19
g18
sg20
S'/usr/share/fonts/ubuntu-font-family/UbuntuMono-R.ttf'
p485
sg22
g23
sbag7
(g8
g9
NtRp486
(dp487
g12
g13
sg14
S'Ubuntu'
p488
sg16
I400
sg17
g18
sg19
g18
sg20
S'/usr/share/fonts/ubuntu-font-family/Ubuntu-RI.ttf'
p489
sg22
g23
sbag7
(g8
g9
NtRp490
(dp491
g12
g18
sg14
S'STIXSizeTwoSym'
p492
sg16
I700
sg17
g18
sg19
g18
sg20
S'/usr/share/fonts/stix-fonts/STIXSizTwoSymBol.otf'
p493
sg22
g23
sbag7
(g8
g9
NtRp494
(dp495
g12
g18
sg14
S'STIXIntegralsUpD'
p496
sg16
I700
sg17
g18
sg19
g18
sg20
S'/usr/share/fonts/stix-fonts/STIXIntUpDBol.otf'
p497
sg22
g23
sbag7
(g8
g9
NtRp498
(dp499
g12
g18
sg14
S'Luxi Sans'
p500
sg16
I400
sg17
g18
sg19
g18
sg20
S'/usr/share/fonts/TTF/luxisr.ttf'
p501
sg22
g23
sbag7
(g8
g9
NtRp502
(dp503
g12
g18
sg14
S'Estrangelo Edessa'
p504
sg16
I400
sg17
g18
sg19
g18
sg20
S'/usr/share/fonts/OTF/SyrCOMEdessa.otf'
p505
sg22
g23
sbag7
(g8
g9
NtRp506
(dp507
g12
g18
sg14
S'Serto Urhoy'
p508
sg16
I700
sg17
g18
sg19
g18
sg20
S'/usr/share/fonts/OTF/SyrCOMUrhoyBold.otf'
p509
sg22
g23
sbag7
(g8
g9
NtRp510
(dp511
g12
g13
sg14
S'STIXNonUnicode'
p512
sg16
I400
sg17
g18
sg19
g18
sg20
S'/usr/share/fonts/stix-fonts/STIXNonUniIta.otf'
p513
sg22
g23
sbag7
(g8
g9
NtRp514
(dp515
g12
g30
sg14
S'Luxi Serif'
p516
sg16
I700
sg17
g18
sg19
g18
sg20
S'/usr/share/fonts/TTF/luxirbi.ttf'
p517
sg22
g23
sbag7
(g8
g9
NtRp518
(dp519
g12
g18
sg14
S'FreeSans'
p520
sg16
I700
sg17
g18
sg19
g18
sg20
S'/usr/share/fonts/freefont-ttf/FreeSansBold.ttf'
p521
sg22
g23
sbag7
(g8
g9
NtRp522
(dp523
g12
g30
sg14
S'DejaVu Sans Mono'
p524
sg16
I400
sg17
g18
sg19
g18
sg20
S'/usr/share/fonts/dejavu/DejaVuSansMono-Oblique.ttf'
p525
sg22
g23
sbag7
(g8
g9
NtRp526
(dp527
g12
g13
sg14
S'DejaVu Serif'
p528
sg16
I400
sg17
g18
sg19
g18
sg20
S'/usr/share/fonts/dejavu/DejaVuSerif-Italic.ttf'
p529
sg22
g23
sbag7
(g8
g9
NtRp530
(dp531
g12
g30
sg14
S'Luxi Mono'
p532
sg16
I700
sg17
g18
sg19
g18
sg20
S'/usr/share/fonts/TTF/luximbi.ttf'
p533
sg22
g23
sbag7
(g8
g9
NtRp534
(dp535
g12
g13
sg14
S'Serto Jerusalem'
p536
sg16
I400
sg17
g18
sg19
g18
sg20
S'/usr/share/fonts/OTF/SyrCOMJerusalemItalic.otf'
p537
sg22
g23
sbag7
(g8
g9
NtRp538
(dp539
g12
g13
sg14
S'Arial'
p540
sg16
I400
sg17
g18
sg19
g18
sg20
S'/usr/share/fonts/corefonts/ariali.ttf'
p541
sg22
g23
sbag7
(g8
g9
NtRp542
(dp543
g12
g18
sg14
S'FreeSerif'
p544
sg16
I400
sg17
g18
sg19
g18
sg20
S'/usr/share/fonts/freefont-ttf/FreeSerif.ttf'
p545
sg22
g23
sbag7
(g8
g9
NtRp546
(dp547
g12
g30
sg14
S'Luxi Mono'
p548
sg16
I400
sg17
g18
sg19
g18
sg20
S'/usr/share/fonts/TTF/luximri.ttf'
p549
sg22
g23
sbag7
(g8
g9
NtRp550
(dp551
g12
g18
sg14
S'Serto Kharput'
p552
sg16
I400
sg17
g18
sg19
g18
sg20
S'/usr/share/fonts/OTF/SyrCOMKharput.otf'
p553
sg22
g23
sbag7
(g8
g9
NtRp554
(dp555
g12
g18
sg14
S'Estrangelo Nisibin'
p556
sg16
I400
sg17
g18
sg19
g18
sg20
S'/usr/share/fonts/OTF/SyrCOMNisibin.otf'
p557
sg22
g23
sbag7
(g8
g9
NtRp558
(dp559
g12
g30
sg14
S'DejaVu Sans Mono'
p560
sg16
I700
sg17
g18
sg19
g18
sg20
S'/usr/share/fonts/dejavu/DejaVuSansMono-BoldOblique.ttf'
p561
sg22
g23
sbag7
(g8
g9
NtRp562
(dp563
g12
g13
sg14
S'STIXGeneral'
p564
sg16
I700
sg17
g18
sg19
g18
sg20
S'/usr/share/fonts/stix-fonts/STIXGeneralBolIta.otf'
p565
sg22
g23
sbag7
(g8
g9
NtRp566
(dp567
g12
g18
sg14
S'Serto Malankara'
p568
sg16
I400
sg17
g18
sg19
g18
sg20
S'/usr/share/fonts/OTF/SyrCOMMalankara.otf'
p569
sg22
g23
sbag7
(g8
g9
NtRp570
(dp571
g12
g18
sg14
S'FreeMono'
p572
sg16
I700
sg17
g18
sg19
g18
sg20
S'/usr/share/fonts/freefont-ttf/FreeMonoBold.ttf'
p573
sg22
g23
sbag7
(g8
g9
NtRp574
(dp575
g12
g30
sg14
S'DejaVu Sans'
p576
sg16
I700
sg17
g18
sg19
g18
sg20
S'/usr/share/fonts/dejavu/DejaVuSans-BoldOblique.ttf'
p577
sg22
g23
sbag7
(g8
g9
NtRp578
(dp579
g12
g18
sg14
S'DejaVu Sans'
p580
sg16
I200
sg17
g18
sg19
g18
sg20
S'/usr/share/fonts/dejavu/DejaVuSans-ExtraLight.ttf'
p581
sg22
g23
sbag7
(g8
g9
NtRp582
(dp583
g12
g18
sg14
S'STIXSizeThreeSym'
p584
sg16
I400
sg17
g18
sg19
g18
sg20
S'/usr/share/fonts/stix-fonts/STIXSizThreeSymReg.otf'
p585
sg22
g23
sbag7
(g8
g9
NtRp586
(dp587
g12
g18
sg14
S'FreeSerif'
p588
sg16
I700
sg17
g18
sg19
g18
sg20
S'/usr/share/fonts/freefont-ttf/FreeSerifBold.ttf'
p589
sg22
g23
sbag7
(g8
g9
NtRp590
(dp591
g12
g30
sg14
S'DejaVu Sans'
p592
sg16
I700
sg17
g172
sg19
g18
sg20
S'/usr/share/fonts/dejavu/DejaVuSansCondensed-BoldOblique.ttf'
p593
sg22
g23
sbag7
(g8
g9
NtRp594
(dp595
g12
g18
sg14
S'Serto Batnan'
p596
sg16
I700
sg17
g18
sg19
g18
sg20
S'/usr/share/fonts/OTF/SyrCOMBatnanBold.otf'
p597
sg22
g23
sbag7
(g8
g9
NtRp598
(dp599
g12
g18
sg14
S'STIXSizeTwoSym'
p600
sg16
I400
sg17
g18
sg19
g18
sg20
S'/usr/share/fonts/stix-fonts/STIXSizTwoSymReg.otf'
p601
sg22
g23
sbag7
(g8
g9
NtRp602
(dp603
g12
g18
sg14
S'Serto Urhoy'
p604
sg16
I400
sg17
g18
sg19
g18
sg20
S'/usr/share/fonts/OTF/SyrCOMUrhoy.otf'
p605
sg22
g23
sbag7
(g8
g9
NtRp606
(dp607
g12
g18
sg14
S'STIXIntegralsSm'
p608
sg16
I700
sg17
g18
sg19
g18
sg20
S'/usr/share/fonts/stix-fonts/STIXIntSmBol.otf'
p609
sg22
g23
sbag7
(g8
g9
NtRp610
(dp611
g12
g18
sg14
S'Serto Jerusalem Outline'
p612
sg16
I400
sg17
g18
sg19
g18
sg20
S'/usr/share/fonts/OTF/SyrCOMJerusalemOutline.otf'
p613
sg22
g23
sbag7
(g8
g9
NtRp614
(dp615
g12
g18
sg14
S'Verdana'
p616
sg16
I400
sg17
g18
sg19
g18
sg20
S'/usr/share/fonts/corefonts/verdana.ttf'
p617
sg22
g23
sbag7
(g8
g9
NtRp618
(dp619
g12
g18
sg14
S'FreeSans'
p620
sg16
I400
sg17
g18
sg19
g18
sg20
S'/usr/share/fonts/freefont-ttf/FreeSans.ttf'
p621
sg22
g23
sbag7
(g8
g9
NtRp622
(dp623
g12
g30
sg14
S'Luxi Sans'
p624
sg16
I400
sg17
g18
sg19
g18
sg20
S'/usr/share/fonts/TTF/luxisri.ttf'
p625
sg22
g23
sbag7
(g8
g9
NtRp626
(dp627
g12
g18
sg14
S'Comic Sans MS'
p628
sg16
I400
sg17
g18
sg19
g18
sg20
S'/usr/share/fonts/corefonts/comic.ttf'
p629
sg22
g23
sbag7
(g8
g9
NtRp630
(dp631
g12
g18
sg14
S'DejaVu Sans'
p632
sg16
I700
sg17
g172
sg19
g18
sg20
S'/usr/share/fonts/dejavu/DejaVuSansCondensed-Bold.ttf'
p633
sg22
g23
sbag7
(g8
g9
NtRp634
(dp635
g12
g18
sg14
S'FreeMono'
p636
sg16
I400
sg17
g18
sg19
g18
sg20
S'/usr/share/fonts/freefont-ttf/FreeMono.ttf'
p637
sg22
g23
sbag7
(g8
g9
NtRp638
(dp639
g12
g18
sg14
S'mikachan_o'
p640
sg16
I400
sg17
g18
sg19
g18
sg20
S'/usr/share/fonts/mikachan-font-otf/mikachan.otf'
p641
sg22
g23
sbag7
(g8
g9
NtRp642
(dp643
g12
g18
sg14
S'East Syriac Ctesiphon'
p644
sg16
I400
sg17
g18
sg19
g18
sg20
S'/usr/share/fonts/OTF/SyrCOMCtesiphon.otf'
p645
sg22
g23
sbag7
(g8
g9
NtRp646
(dp647
g12
g18
sg14
S'mikachan_o-PS'
p648
sg16
I400
sg17
g18
sg19
g18
sg20
S'/usr/share/fonts/mikachan-font-otf/mikachan-ps.otf'
p649
sg22
g23
sbag7
(g8
g9
NtRp650
(dp651
g12
g18
sg14
S'Arial'
p652
sg16
I700
sg17
g18
sg19
g18
sg20
S'/usr/share/fonts/corefonts/arialbd.ttf'
p653
sg22
g23
sbag7
(g8
g9
NtRp654
(dp655
g12
g18
sg14
S'Courier New'
p656
sg16
I700
sg17
g18
sg19
g18
sg20
S'/usr/share/fonts/corefonts/courbd.ttf'
p657
sg22
g23
sbag7
(g8
g9
NtRp658
(dp659
g12
g18
sg14
S'East Syriac Adiabene'
p660
sg16
I400
sg17
g18
sg19
g18
sg20
S'/usr/share/fonts/OTF/SyrCOMAdiabene.otf'
p661
sg22
g23
sbag7
(g8
g9
NtRp662
(dp663
g12
g18
sg14
S'DejaVu Sans Mono'
p664
sg16
I700
sg17
g18
sg19
g18
sg20
S'/usr/share/fonts/dejavu/DejaVuSansMono-Bold.ttf'
p665
sg22
g23
sbag7
(g8
g9
NtRp666
(dp667
g12
g18
sg14
S'Georgia'
p668
sg16
I400
sg17
g18
sg19
g18
sg20
S'/usr/share/fonts/corefonts/georgia.ttf'
p669
sg22
g23
sbag7
(g8
g9
NtRp670
(dp671
g12
g13
sg14
S'Verdana'
p672
sg16
I700
sg17
g18
sg19
g18
sg20
S'/usr/share/fonts/corefonts/verdanaz.ttf'
p673
sg22
g23
sbag7
(g8
g9
NtRp674
(dp675
g12
g18
sg14
S'Times New Roman'
p676
sg16
I700
sg17
g18
sg19
g18
sg20
S'/usr/share/fonts/corefonts/timesbd.ttf'
p677
sg22
g23
sbag7
(g8
g9
NtRp678
(dp679
g12
g13
sg14
S'Arial'
p680
sg16
I700
sg17
g18
sg19
g18
sg20
S'/usr/share/fonts/corefonts/arialbi.ttf'
p681
sg22
g23
sbag7
(g8
g9
NtRp682
(dp683
g12
g18
sg14
S'DejaVu Sans'
p684
sg16
I400
sg17
g18
sg19
g18
sg20
S'/usr/share/fonts/dejavu/DejaVuSans.ttf'
p685
sg22
g23
sbag7
(g8
g9
NtRp686
(dp687
g12
g13
sg14
S'FreeSerif'
p688
sg16
I700
sg17
g18
sg19
g18
sg20
S'/usr/share/fonts/freefont-ttf/FreeSerifBoldItalic.ttf'
p689
sg22
g23
sbag7
(g8
g9
NtRp690
(dp691
g12
g18
sg14
S'STIXVariants'
p692
sg16
I400
sg17
g18
sg19
g18
sg20
S'/usr/share/fonts/stix-fonts/STIXVar.otf'
p693
sg22
g23
sbag7
(g8
g9
NtRp694
(dp695
g12
g13
sg14
S'Times New Roman'
p696
sg16
I700
sg17
g18
sg19
g18
sg20
S'/usr/share/fonts/corefonts/timesbi.ttf'
p697
sg22
g23
sbag7
(g8
g9
NtRp698
(dp699
g12
g18
sg14
S'STIXSizeThreeSym'
p700
sg16
I700
sg17
g18
sg19
g18
sg20
S'/usr/share/fonts/stix-fonts/STIXSizThreeSymBol.otf'
p701
sg22
g23
sbag7
(g8
g9
NtRp702
(dp703
g12
g18
sg14
S'Serto Mardin'
p704
sg16
I700
sg17
g18
sg19
g18
sg20
S'/usr/share/fonts/OTF/SyrCOMMardinBold.otf'
p705
sg22
g23
sbag7
(g8
g9
NtRp706
(dp707
g12
g13
sg14
S'DejaVu Serif'
p708
sg16
I700
sg17
g18
sg19
g18
sg20
S'/usr/share/fonts/dejavu/DejaVuSerif-BoldItalic.ttf'
p709
sg22
g23
sbag7
(g8
g9
NtRp710
(dp711
g12
g18
sg14
S'Luxi Serif'
p712
sg16
I400
sg17
g18
sg19
g18
sg20
S'/usr/share/fonts/TTF/luxirr.ttf'
p713
sg22
g23
sbag7
(g8
g9
NtRp714
(dp715
g12
g18
sg14
S'DejaVu Serif'
p716
sg16
I700
sg17
g172
sg19
g18
sg20
S'/usr/share/fonts/dejavu/DejaVuSerifCondensed-Bold.ttf'
p717
sg22
g23
sbag7
(g8
g9
NtRp718
(dp719
g12
g13
sg14
S'Trebuchet MS'
p720
sg16
I400
sg17
g18
sg19
g18
sg20
S'/usr/share/fonts/corefonts/trebucit.ttf'
p721
sg22
g23
sbag7
(g8
g9
NtRp722
(dp723
g12
g18
sg14
S'Monaco for Powerline'
p724
sg16
I400
sg17
g18
sg19
g18
sg20
S'/home/npinto/.fonts/Monaco_Linux-Powerline.ttf'
p725
sg22
g23
sbag7
(g8
g9
NtRp726
(dp727
g12
g18
sg14
S'Luxi Serif'
p728
sg16
I700
sg17
g18
sg19
g18
sg20
S'/usr/share/fonts/TTF/luxirb.ttf'
p729
sg22
g23
sbag7
(g8
g9
NtRp730
(dp731
g12
g13
sg14
S'Ubuntu Mono'
p732
sg16
I400
sg17
g18
sg19
g18
sg20
S'/usr/share/fonts/ubuntu-font-family/UbuntuMono-RI.ttf'
p733
sg22
g23
sbag7
(g8
g9
NtRp734
(dp735
g12
g18
sg14
S'Ubuntu'
p736
sg16
I700
sg17
g18
sg19
g18
sg20
S'/usr/share/fonts/ubuntu-font-family/Ubuntu-B.ttf'
p737
sg22
g23
sbag7
(g8
g9
NtRp738
(dp739
g12
g18
sg14
S'Webdings'
p740
sg16
I400
sg17
g18
sg19
g18
sg20
S'/usr/share/fonts/corefonts/webdings.ttf'
p741
sg22
g23
sbag7
(g8
g9
NtRp742
(dp743
g12
g18
sg14
S'Times New Roman'
p744
sg16
I500
sg17
g18
sg19
g18
sg20
S'/usr/share/fonts/corefonts/times.ttf'
p745
sg22
g23
sbag7
(g8
g9
NtRp746
(dp747
g12
g18
sg14
S'STIXSizeOneSym'
p748
sg16
I400
sg17
g18
sg19
g18
sg20
S'/usr/share/fonts/stix-fonts/STIXSizOneSymReg.otf'
p749
sg22
g23
sbasS'defaultFamily'
p750
(dp751
S'afm'
p752
S'Helvetica'
p753
sS'ttf'
p754
S'Bitstream Vera Sans'
p755
ssS'ttffiles'
p756
(lp757
S'/usr/lib64/python2.7/site-packages/matplotlib/mpl-data/fonts/ttf/STIXGeneralBolIta.ttf'
p758
aS'/usr/lib64/python2.7/site-packages/matplotlib/mpl-data/fonts/ttf/cmb10.ttf'
p759
aS'/usr/lib64/python2.7/site-packages/matplotlib/mpl-data/fonts/ttf/VeraMoIt.ttf'
p760
aS'/usr/lib64/python2.7/site-packages/matplotlib/mpl-data/fonts/ttf/STIXSizFourSymBol.ttf'
p761
aS'/usr/lib64/python2.7/site-packages/matplotlib/mpl-data/fonts/ttf/VeraMoBd.ttf'
p762
aS'/usr/lib64/python2.7/site-packages/matplotlib/mpl-data/fonts/ttf/Vera.ttf'
p763
aS'/usr/lib64/python2.7/site-packages/matplotlib/mpl-data/fonts/ttf/STIXGeneralItalic.ttf'
p764
aS'/usr/lib64/python2.7/site-packages/matplotlib/mpl-data/fonts/ttf/STIXSizTwoSymReg.ttf'
p765
aS'/usr/lib64/python2.7/site-packages/matplotlib/mpl-data/fonts/ttf/STIXSizFourSymReg.ttf'
p766
aS'/usr/lib64/python2.7/site-packages/matplotlib/mpl-data/fonts/ttf/cmss10.ttf'
p767
aS'/usr/lib64/python2.7/site-packages/matplotlib/mpl-data/fonts/ttf/STIXSizThreeSymBol.ttf'
p768
aS'/usr/lib64/python2.7/site-packages/matplotlib/mpl-data/fonts/ttf/VeraMoBI.ttf'
p769
aS'/usr/lib64/python2.7/site-packages/matplotlib/mpl-data/fonts/ttf/VeraSeBd.ttf'
p770
aS'/usr/lib64/python2.7/site-packages/matplotlib/mpl-data/fonts/ttf/VeraSe.ttf'
p771
aS'/usr/lib64/python2.7/site-packages/matplotlib/mpl-data/fonts/ttf/STIXNonUni.ttf'
p772
aS'/usr/lib64/python2.7/site-packages/matplotlib/mpl-data/fonts/ttf/cmr10.ttf'
p773
aS'/usr/lib64/python2.7/site-packages/matplotlib/mpl-data/fonts/ttf/cmtt10.ttf'
p774
aS'/usr/lib64/python2.7/site-packages/matplotlib/mpl-data/fonts/ttf/VeraBI.ttf'
p775
aS'/usr/lib64/python2.7/site-packages/matplotlib/mpl-data/fonts/ttf/STIXSizOneSymReg.ttf'
p776
aS'/usr/lib64/python2.7/site-packages/matplotlib/mpl-data/fonts/ttf/STIXGeneralBol.ttf'
p777
aS'/usr/lib64/python2.7/site-packages/matplotlib/mpl-data/fonts/ttf/STIXSizThreeSymReg.ttf'
p778
aS'/usr/lib64/python2.7/site-packages/matplotlib/mpl-data/fonts/ttf/STIXSizFiveSymReg.ttf'
p779
aS'/usr/lib64/python2.7/site-packages/matplotlib/mpl-data/fonts/ttf/VeraBd.ttf'
p780
aS'/usr/lib64/python2.7/site-packages/matplotlib/mpl-data/fonts/ttf/STIXNonUniBol.ttf'
p781
aS'/usr/lib64/python2.7/site-packages/matplotlib/mpl-data/fonts/ttf/cmmi10.ttf'
p782
aS'/usr/lib64/python2.7/site-packages/matplotlib/mpl-data/fonts/ttf/cmsy10.ttf'
p783
aS'/usr/lib64/python2.7/site-packages/matplotlib/mpl-data/fonts/ttf/VeraMono.ttf'
p784
aS'/usr/lib64/python2.7/site-packages/matplotlib/mpl-data/fonts/ttf/STIXGeneral.ttf'
p785
aS'/usr/lib64/python2.7/site-packages/matplotlib/mpl-data/fonts/ttf/cmex10.ttf'
p786
aS'/usr/lib64/python2.7/site-packages/matplotlib/mpl-data/fonts/ttf/STIXNonUniBolIta.ttf'
p787
aS'/usr/lib64/python2.7/site-packages/matplotlib/mpl-data/fonts/ttf/VeraIt.ttf'
p788
aS'/usr/lib64/python2.7/site-packages/matplotlib/mpl-data/fonts/ttf/STIXNonUniIta.ttf'
p789
aS'/usr/lib64/python2.7/site-packages/matplotlib/mpl-data/fonts/ttf/STIXSizTwoSymBol.ttf'
p790
aS'/usr/lib64/python2.7/site-packages/matplotlib/mpl-data/fonts/ttf/STIXSizOneSymBol.ttf'
p791
aS'/usr/share/fonts/stix-fonts/STIXNonUniBolIta.otf'
p792
aS'/usr/share/fonts/OTF/SyrCOMBatnan.otf'
p793
aS'/usr/share/fonts/freefont-ttf/FreeSerifItalic.ttf'
p794
aS'/usr/share/fonts/ubuntu-font-family/Ubuntu-C.ttf'
p795
aS'/usr/share/fonts/corefonts/courbi.ttf'
p796
aS'/usr/share/fonts/stix-fonts/STIXIntUpSmBol.otf'
p797
aS'/usr/share/fonts/corefonts/impact.ttf'
p798
aS'/usr/share/fonts/OTF/SyrCOMMardin.otf'
p799
aS'/usr/share/fonts/stix-fonts/STIXIntUpBol.otf'
p800
aS'/usr/share/fonts/ubuntu-font-family/Ubuntu-LI.ttf'
p801
aS'/usr/share/fonts/stix-fonts/STIXGeneral.otf'
p802
aS'/usr/share/fonts/stix-fonts/STIXNonUni.otf'
p803
aS'/usr/share/fonts/ubuntu-font-family/UbuntuMono-BI.ttf'
p804
aS'/usr/share/fonts/TTF/luxisb.ttf'
p805
aS'/usr/share/fonts/corefonts/trebucbi.ttf'
p806
aS'/usr/share/fonts/mikachan-font-otf/mikachan-p.otf'
p807
aS'/usr/share/fonts/corefonts/georgiab.ttf'
p808
aS'/usr/share/fonts/stix-fonts/STIXGeneralBol.otf'
p809
aS'/usr/share/fonts/texcm-ttf/cmmi10.ttf'
p810
aS'/usr/share/fonts/corefonts/ariblk.ttf'
p811
aS'/usr/share/fonts/dejavu/DejaVuSans-Bold.ttf'
p812
aS'/usr/share/fonts/stix-fonts/STIXSizFourSymReg.otf'
p813
aS'/usr/share/fonts/mikachan-font-ttf/mikachan-PS.ttf'
p814
aS'/usr/share/fonts/ubuntu-font-family/UbuntuMono-B.ttf'
p815
aS'/usr/share/fonts/stix-fonts/STIXSizFourSymBol.otf'
p816
aS'/usr/share/fonts/freefont-ttf/FreeMonoBoldOblique.ttf'
p817
aS'/usr/share/fonts/corefonts/georgiai.ttf'
p818
aS'/usr/share/fonts/OTF/SyrCOMNisibinOutline.otf'
p819
aS'/usr/share/fonts/dejavu/DejaVuSansCondensed.ttf'
p820
aS'/usr/share/fonts/freefont-ttf/FreeMonoOblique.ttf'
p821
aS'/home/npinto/.fonts/Menlo-Powerline.otf'
p822
aS'/usr/share/fonts/TTF/luxirri.ttf'
p823
aS'/usr/share/fonts/OTF/SyrCOMQenNeshrin.otf'
p824
aS'/usr/share/fonts/dejavu/DejaVuSansCondensed-Oblique.ttf'
p825
aS'/usr/share/fonts/OTF/SyrCOMTalada.otf'
p826
aS'/usr/share/fonts/corefonts/trebucbd.ttf'
p827
aS'/usr/share/fonts/OTF/GohaTibebZemen.otf'
p828
aS'/usr/share/fonts/stix-fonts/STIXVarBol.otf'
p829
aS'/usr/share/fonts/OTF/SyrCOMAntioch.otf'
p830
aS'/usr/share/fonts/stix-fonts/STIXIntDReg.otf'
p831
aS'/usr/share/fonts/stix-fonts/STIXIntUpReg.otf'
p832
aS'/usr/share/fonts/corefonts/couri.ttf'
p833
aS'/usr/share/fonts/dejavu/DejaVuSerifCondensed-BoldItalic.ttf'
p834
aS'/usr/share/fonts/ubuntu-font-family/Ubuntu-BI.ttf'
p835
aS'/usr/share/fonts/mikachan-font-ttf/mikachan.ttf'
p836
aS'/usr/share/fonts/dejavu/DejaVuSerif.ttf'
p837
aS'/usr/share/fonts/corefonts/verdanai.ttf'
p838
aS'/usr/share/fonts/corefonts/verdanab.ttf'
p839
aS'/usr/share/fonts/stix-fonts/STIXSizOneSymBol.otf'
p840
aS'/usr/share/fonts/dejavu/DejaVuSerifCondensed.ttf'
p841
aS'/usr/share/fonts/stix-fonts/STIXIntUpDReg.otf'
p842
aS'/usr/share/fonts/OTF/SyrCOMJerusalemBold.otf'
p843
aS'/usr/share/fonts/dejavu/DejaVuSerif-Bold.ttf'
p844
aS'/usr/share/fonts/dejavu/DejaVuSerifCondensed-Italic.ttf'
p845
aS'/usr/share/fonts/TTF/luxisbi.ttf'
p846
aS'/usr/share/fonts/corefonts/arial.ttf'
p847
aS'/usr/share/fonts/OTF/SyrCOMJerusalem.otf'
p848
aS'/usr/share/fonts/stix-fonts/STIXNonUniBol.otf'
p849
aS'/usr/share/fonts/TTF/luximb.ttf'
p850
aS'/usr/share/fonts/corefonts/timesi.ttf'
p851
aS'/usr/share/fonts/OTF/SyrCOMTurAbdin.otf'
p852
aS'/usr/share/fonts/dejavu/DejaVuSans-Oblique.ttf'
p853
aS'/usr/share/fonts/stix-fonts/STIXIntUpSmReg.otf'
p854
aS'/usr/share/fonts/freefont-ttf/FreeSansOblique.ttf'
p855
aS'/usr/share/fonts/TTF/luximr.ttf'
p856
aS'/usr/share/fonts/corefonts/comicbd.ttf'
p857
aS'/usr/share/fonts/freefont-ttf/FreeSansBoldOblique.ttf'
p858
aS'/usr/share/fonts/OTF/SyrCOMMidyat.otf'
p859
aS'/usr/share/fonts/stix-fonts/STIXGeneralItalic.otf'
p860
aS'/usr/share/fonts/stix-fonts/STIXSizFiveSymReg.otf'
p861
aS'/usr/share/fonts/mikachan-font-ttf/mikachan-P.ttf'
p862
aS'/usr/share/fonts/ubuntu-font-family/Ubuntu-R.ttf'
p863
aS'/usr/share/fonts/stix-fonts/STIXIntSmReg.otf'
p864
aS'/usr/share/fonts/corefonts/cour.ttf'
p865
aS'/usr/share/fonts/mikachan-font-otf/mikachan-pb.otf'
p866
aS'/usr/share/fonts/mikachan-font-ttf/mikachan-PB.ttf'
p867
aS'/usr/share/fonts/corefonts/andalemo.ttf'
p868
aS'/usr/share/fonts/dejavu/DejaVuSansMono.ttf'
p869
aS'/usr/share/fonts/corefonts/georgiaz.ttf'
p870
aS'/usr/share/fonts/stix-fonts/STIXIntDBol.otf'
p871
aS'/usr/share/fonts/corefonts/trebuc.ttf'
p872
aS'/usr/share/fonts/ubuntu-font-family/Ubuntu-L.ttf'
p873
aS'/usr/share/fonts/ubuntu-font-family/UbuntuMono-R.ttf'
p874
aS'/usr/share/fonts/ubuntu-font-family/Ubuntu-RI.ttf'
p875
aS'/usr/share/fonts/stix-fonts/STIXSizTwoSymBol.otf'
p876
aS'/usr/share/fonts/texcm-ttf/cmsy10.ttf'
p877
aS'/usr/share/fonts/stix-fonts/STIXIntUpDBol.otf'
p878
aS'/usr/share/fonts/TTF/luxisr.ttf'
p879
aS'/usr/share/fonts/OTF/SyrCOMEdessa.otf'
p880
aS'/usr/share/fonts/OTF/SyrCOMUrhoyBold.otf'
p881
aS'/usr/share/fonts/stix-fonts/STIXNonUniIta.otf'
p882
aS'/usr/share/fonts/TTF/luxirbi.ttf'
p883
aS'/usr/share/fonts/freefont-ttf/FreeSansBold.ttf'
p884
aS'/usr/share/fonts/dejavu/DejaVuSansMono-Oblique.ttf'
p885
aS'/usr/share/fonts/dejavu/DejaVuSerif-Italic.ttf'
p886
aS'/usr/share/fonts/TTF/luximbi.ttf'
p887
aS'/usr/share/fonts/OTF/SyrCOMJerusalemItalic.otf'
p888
aS'/usr/share/fonts/corefonts/ariali.ttf'
p889
aS'/usr/share/fonts/freefont-ttf/FreeSerif.ttf'
p890
aS'/usr/share/fonts/TTF/luximri.ttf'
p891
aS'/usr/share/fonts/OTF/SyrCOMKharput.otf'
p892
aS'/usr/share/fonts/OTF/SyrCOMNisibin.otf'
p893
aS'/usr/share/fonts/dejavu/DejaVuSansMono-BoldOblique.ttf'
p894
aS'/usr/share/fonts/texcm-ttf/cmex10.ttf'
p895
aS'/usr/share/fonts/stix-fonts/STIXGeneralBolIta.otf'
p896
aS'/usr/share/fonts/OTF/SyrCOMMalankara.otf'
p897
aS'/usr/share/fonts/freefont-ttf/FreeMonoBold.ttf'
p898
aS'/usr/share/fonts/dejavu/DejaVuSans-BoldOblique.ttf'
p899
aS'/usr/share/fonts/dejavu/DejaVuSans-ExtraLight.ttf'
p900
aS'/usr/share/fonts/stix-fonts/STIXSizThreeSymReg.otf'
p901
aS'/usr/share/fonts/freefont-ttf/FreeSerifBold.ttf'
p902
aS'/usr/share/fonts/dejavu/DejaVuSansCondensed-BoldOblique.ttf'
p903
aS'/usr/share/fonts/OTF/SyrCOMBatnanBold.otf'
p904
aS'/usr/share/fonts/stix-fonts/STIXSizTwoSymReg.otf'
p905
aS'/usr/share/fonts/OTF/SyrCOMUrhoy.otf'
p906
aS'/usr/share/fonts/stix-fonts/STIXIntSmBol.otf'
p907
aS'/usr/share/fonts/OTF/SyrCOMJerusalemOutline.otf'
p908
aS'/usr/share/fonts/corefonts/verdana.ttf'
p909
aS'/usr/share/fonts/freefont-ttf/FreeSans.ttf'
p910
aS'/usr/share/fonts/TTF/luxisri.ttf'
p911
aS'/usr/share/fonts/corefonts/comic.ttf'
p912
aS'/usr/share/fonts/dejavu/DejaVuSansCondensed-Bold.ttf'
p913
aS'/usr/share/fonts/freefont-ttf/FreeMono.ttf'
p914
aS'/usr/share/fonts/mikachan-font-otf/mikachan.otf'
p915
aS'/usr/share/fonts/OTF/SyrCOMCtesiphon.otf'
p916
aS'/usr/share/fonts/texcm-ttf/cmr10.ttf'
p917
aS'/usr/share/fonts/mikachan-font-otf/mikachan-ps.otf'
p918
aS'/usr/share/fonts/corefonts/arialbd.ttf'
p919
aS'/usr/share/fonts/corefonts/courbd.ttf'
p920
aS'/usr/share/fonts/OTF/SyrCOMAdiabene.otf'
p921
aS'/usr/share/fonts/dejavu/DejaVuSansMono-Bold.ttf'
p922
aS'/usr/share/fonts/corefonts/georgia.ttf'
p923
aS'/usr/share/fonts/corefonts/verdanaz.ttf'
p924
aS'/usr/share/fonts/corefonts/timesbd.ttf'
p925
aS'/usr/share/fonts/corefonts/arialbi.ttf'
p926
aS'/usr/share/fonts/dejavu/DejaVuSans.ttf'
p927
aS'/usr/share/fonts/freefont-ttf/FreeSerifBoldItalic.ttf'
p928
aS'/usr/share/fonts/stix-fonts/STIXVar.otf'
p929
aS'/usr/share/fonts/corefonts/timesbi.ttf'
p930
aS'/usr/share/fonts/stix-fonts/STIXSizThreeSymBol.otf'
p931
aS'/usr/share/fonts/OTF/SyrCOMMardinBold.otf'
p932
aS'/usr/share/fonts/dejavu/DejaVuSerif-BoldItalic.ttf'
p933
aS'/usr/share/fonts/TTF/luxirr.ttf'
p934
aS'/usr/share/fonts/dejavu/DejaVuSerifCondensed-Bold.ttf'
p935
aS'/usr/share/fonts/corefonts/trebucit.ttf'
p936
aS'/home/npinto/.fonts/Monaco_Linux-Powerline.ttf'
p937
aS'/usr/share/fonts/TTF/luxirb.ttf'
p938
aS'/usr/share/fonts/ubuntu-font-family/UbuntuMono-RI.ttf'
p939
aS'/usr/share/fonts/ubuntu-font-family/Ubuntu-B.ttf'
p940
aS'/usr/share/fonts/corefonts/webdings.ttf'
p941
aS'/usr/share/fonts/corefonts/times.ttf'
p942
aS'/usr/share/fonts/stix-fonts/STIXSizOneSymReg.otf'
p943
asS'_FontManager__default_weight'
p944
g18
sS'_version'
p945
I101
sS'ttf_lookup_cache'
p946
(dp947
sS'default_size'
p948
NsS'defaultFont'
p949
(dp950
g752
S'/usr/lib64/python2.7/site-packages/matplotlib/mpl-data/fonts/afm/phvl8a.afm'
p951
sg754
g763
ssS'afmfiles'
p952
(lp953
g951
aS'/usr/lib64/python2.7/site-packages/matplotlib/mpl-data/fonts/afm/pncbi8a.afm'
p954
aS'/usr/lib64/python2.7/site-packages/matplotlib/mpl-data/fonts/afm/phvb8a.afm'
p955
aS'/usr/lib64/python2.7/site-packages/matplotlib/mpl-data/fonts/afm/ptmr8a.afm'
p956
aS'/usr/lib64/python2.7/site-packages/matplotlib/mpl-data/fonts/afm/pplb8a.afm'
p957
aS'/usr/lib64/python2.7/site-packages/matplotlib/mpl-data/fonts/afm/putbi8a.afm'
p958
aS'/usr/lib64/python2.7/site-packages/matplotlib/mpl-data/fonts/afm/pncb8a.afm'
p959
aS'/usr/lib64/python2.7/site-packages/matplotlib/mpl-data/fonts/pdfcorefonts/Courier-Oblique.afm'
p960
aS'/usr/lib64/python2.7/site-packages/matplotlib/mpl-data/fonts/afm/phvbo8a.afm'
p961
aS'/usr/lib64/python2.7/site-packages/matplotlib/mpl-data/fonts/pdfcorefonts/Times-BoldItalic.afm'
p962
aS'/usr/lib64/python2.7/site-packages/matplotlib/mpl-data/fonts/afm/ptmri8a.afm'
p963
aS'/usr/lib64/python2.7/site-packages/matplotlib/mpl-data/fonts/pdfcorefonts/Symbol.afm'
p964
aS'/usr/lib64/python2.7/site-packages/matplotlib/mpl-data/fonts/afm/phvr8a.afm'
p965
aS'/usr/lib64/python2.7/site-packages/matplotlib/mpl-data/fonts/afm/putri8a.afm'
p966
aS'/usr/lib64/python2.7/site-packages/matplotlib/mpl-data/fonts/afm/pplr8a.afm'
p967
aS'/usr/lib64/python2.7/site-packages/matplotlib/mpl-data/fonts/pdfcorefonts/Helvetica.afm'
p968
aS'/usr/lib64/python2.7/site-packages/matplotlib/mpl-data/fonts/pdfcorefonts/Times-Bold.afm'
p969
aS'/usr/lib64/python2.7/site-packages/matplotlib/mpl-data/fonts/afm/pbkd8a.afm'
p970
aS'/usr/lib64/python2.7/site-packages/matplotlib/mpl-data/fonts/afm/ptmbi8a.afm'
p971
aS'/usr/lib64/python2.7/site-packages/matplotlib/mpl-data/fonts/afm/pcrr8a.afm'
p972
aS'/usr/lib64/python2.7/site-packages/matplotlib/mpl-data/fonts/afm/pagdo8a.afm'
p973
aS'/usr/lib64/python2.7/site-packages/matplotlib/mpl-data/fonts/pdfcorefonts/Courier.afm'
p974
aS'/usr/lib64/python2.7/site-packages/matplotlib/mpl-data/fonts/pdfcorefonts/Courier-BoldOblique.afm'
p975
aS'/usr/lib64/python2.7/site-packages/matplotlib/mpl-data/fonts/pdfcorefonts/Helvetica-Oblique.afm'
p976
aS'/usr/lib64/python2.7/site-packages/matplotlib/mpl-data/fonts/afm/pcrbo8a.afm'
p977
aS'/usr/lib64/python2.7/site-packages/matplotlib/mpl-data/fonts/afm/pcrb8a.afm'
p978
aS'/usr/lib64/python2.7/site-packages/matplotlib/mpl-data/fonts/afm/ptmb8a.afm'
p979
aS'/usr/lib64/python2.7/site-packages/matplotlib/mpl-data/fonts/pdfcorefonts/Times-Roman.afm'
p980
aS'/usr/lib64/python2.7/site-packages/matplotlib/mpl-data/fonts/afm/phvlo8a.afm'
p981
aS'/usr/lib64/python2.7/site-packages/matplotlib/mpl-data/fonts/afm/putb8a.afm'
p982
aS'/usr/lib64/python2.7/site-packages/matplotlib/mpl-data/fonts/afm/cmsy10.afm'
p983
aS'/usr/lib64/python2.7/site-packages/matplotlib/mpl-data/fonts/afm/phvro8an.afm'
p984
aS'/usr/lib64/python2.7/site-packages/matplotlib/mpl-data/fonts/afm/pzcmi8a.afm'
p985
aS'/usr/lib64/python2.7/site-packages/matplotlib/mpl-data/fonts/afm/psyr.afm'
p986
aS'/usr/lib64/python2.7/site-packages/matplotlib/mpl-data/fonts/pdfcorefonts/Helvetica-Bold.afm'
p987
aS'/usr/lib64/python2.7/site-packages/matplotlib/mpl-data/fonts/afm/pplbi8a.afm'
p988
aS'/usr/lib64/python2.7/site-packages/matplotlib/mpl-data/fonts/pdfcorefonts/Times-Italic.afm'
p989
aS'/usr/lib64/python2.7/site-packages/matplotlib/mpl-data/fonts/pdfcorefonts/ZapfDingbats.afm'
p990
aS'/usr/lib64/python2.7/site-packages/matplotlib/mpl-data/fonts/afm/pbkli8a.afm'
p991
aS'/usr/lib64/python2.7/site-packages/matplotlib/mpl-data/fonts/afm/phvbo8an.afm'
p992
aS'/usr/lib64/python2.7/site-packages/matplotlib/mpl-data/fonts/afm/putr8a.afm'
p993
aS'/usr/lib64/python2.7/site-packages/matplotlib/mpl-data/fonts/afm/pzdr.afm'
p994
aS'/usr/lib64/python2.7/site-packages/matplotlib/mpl-data/fonts/afm/cmmi10.afm'
p995
aS'/usr/lib64/python2.7/site-packages/matplotlib/mpl-data/fonts/afm/pagko8a.afm'
p996
aS'/usr/lib64/python2.7/site-packages/matplotlib/mpl-data/fonts/afm/pbkl8a.afm'
p997
aS'/usr/lib64/python2.7/site-packages/matplotlib/mpl-data/fonts/afm/pncr8a.afm'
p998
aS'/usr/lib64/python2.7/site-packages/matplotlib/mpl-data/fonts/afm/cmtt10.afm'
p999
aS'/usr/lib64/python2.7/site-packages/matplotlib/mpl-data/fonts/afm/pagk8a.afm'
p1000
aS'/usr/lib64/python2.7/site-packages/matplotlib/mpl-data/fonts/afm/pcrro8a.afm'
p1001
aS'/usr/lib64/python2.7/site-packages/matplotlib/mpl-data/fonts/afm/phvr8an.afm'
p1002
aS'/usr/lib64/python2.7/site-packages/matplotlib/mpl-data/fonts/afm/cmex10.afm'
p1003
aS'/usr/lib64/python2.7/site-packages/matplotlib/mpl-data/fonts/afm/pbkdi8a.afm'
p1004
aS'/usr/lib64/python2.7/site-packages/matplotlib/mpl-data/fonts/afm/pncri8a.afm'
p1005
aS'/usr/lib64/python2.7/site-packages/matplotlib/mpl-data/fonts/afm/phvro8a.afm'
p1006
aS'/usr/lib64/python2.7/site-packages/matplotlib/mpl-data/fonts/pdfcorefonts/Helvetica-BoldOblique.afm'
p1007
aS'/usr/lib64/python2.7/site-packages/matplotlib/mpl-data/fonts/afm/pplri8a.afm'
p1008
aS'/usr/lib64/python2.7/site-packages/matplotlib/mpl-data/fonts/pdfcorefonts/Courier-Bold.afm'
p1009
aS'/usr/lib64/python2.7/site-packages/matplotlib/mpl-data/fonts/afm/phvb8an.afm'
p1010
aS'/usr/lib64/python2.7/site-packages/matplotlib/mpl-data/fonts/afm/pagd8a.afm'
p1011
aS'/usr/lib64/python2.7/site-packages/matplotlib/mpl-data/fonts/afm/cmr10.afm'
p1012
aS'/usr/share/fonts/urw-fonts/n019044l.afm'
p1013
aS'/usr/share/fonts/urw-fonts/n019064l.afm'
p1014
aS'/usr/share/fonts/Type1/cour.afm'
p1015
aS'/usr/share/fonts/Type1/l049016t.afm'
p1016
aS'/usr/share/fonts/Type1/l048036t.afm'
p1017
aS'/usr/share/fonts/Type1/l048033t.afm'
p1018
aS'/usr/share/fonts/Type1/l048016t.afm'
p1019
aS'/usr/share/fonts/Type1/l049013t.afm'
p1020
aS'/usr/share/fonts/urw-fonts/b018032l.afm'
p1021
aS'/usr/share/fonts/urw-fonts/p052004l.afm'
p1022
aS'/usr/share/fonts/Type1/courbi.afm'
p1023
aS'/usr/share/fonts/urw-fonts/n019004l.afm'
p1024
aS'/usr/share/fonts/urw-fonts/n019043l.afm'
p1025
aS'/usr/share/fonts/Type1/c0632bt_.afm'
p1026
aS'/usr/share/fonts/urw-fonts/n019003l.afm'
p1027
aS'/usr/share/fonts/Type1/l047013t.afm'
p1028
aS'/usr/share/fonts/Type1/l049033t.afm'
p1029
aS'/usr/share/fonts/Type1/c0611bt_.afm'
p1030
aS'/usr/share/fonts/urw-fonts/n019024l.afm'
p1031
aS'/usr/share/fonts/Type1/l047016t.afm'
p1032
aS'/usr/share/fonts/Type1/l047033t.afm'
p1033
aS'/usr/share/fonts/Type1/l047036t.afm'
p1034
aS'/usr/share/fonts/urw-fonts/n022023l.afm'
p1035
aS'/usr/share/fonts/Type1/UTBI____.afm'
p1036
aS'/usr/share/fonts/Type1/couri.afm'
p1037
aS'/usr/share/fonts/urw-fonts/b018012l.afm'
p1038
aS'/usr/share/fonts/urw-fonts/d050000l.afm'
p1039
aS'/usr/share/fonts/urw-fonts/c059036l.afm'
p1040
aS'/usr/share/fonts/urw-fonts/n021004l.afm'
p1041
aS'/usr/share/fonts/urw-fonts/n021023l.afm'
p1042
aS'/usr/share/fonts/urw-fonts/p052003l.afm'
p1043
aS'/usr/share/fonts/Type1/c0583bt_.afm'
p1044
aS'/usr/share/fonts/urw-fonts/n019063l.afm'
p1045
aS'/usr/share/fonts/urw-fonts/b018015l.afm'
p1046
aS'/usr/share/fonts/Type1/c0633bt_.afm'
p1047
aS'/usr/share/fonts/urw-fonts/z003034l.afm'
p1048
aS'/usr/share/fonts/Type1/c0648bt_.afm'
p1049
aS'/usr/share/fonts/urw-fonts/c059013l.afm'
p1050
aS'/usr/share/fonts/urw-fonts/c059033l.afm'
p1051
aS'/usr/share/fonts/Type1/l049036t.afm'
p1052
aS'/usr/share/fonts/Type1/c0649bt_.afm'
p1053
aS'/usr/share/fonts/urw-fonts/n022003l.afm'
p1054
aS'/usr/share/fonts/urw-fonts/c059016l.afm'
p1055
aS'/usr/share/fonts/Type1/c0582bt_.afm'
p1056
aS'/usr/share/fonts/Type1/UTRG____.afm'
p1057
aS'/usr/share/fonts/Type1/l048013t.afm'
p1058
aS'/usr/share/fonts/urw-fonts/b018035l.afm'
p1059
aS'/usr/share/fonts/Type1/UTB_____.afm'
p1060
aS'/usr/share/fonts/Type1/courb.afm'
p1061
aS'/usr/share/fonts/urw-fonts/n022024l.afm'
p1062
aS'/usr/share/fonts/urw-fonts/s050000l.afm'
p1063
aS'/usr/share/fonts/urw-fonts/n022004l.afm'
p1064
aS'/usr/share/fonts/urw-fonts/a010035l.afm'
p1065
aS'/usr/share/fonts/Type1/c0419bt_.afm'
p1066
aS'/usr/share/fonts/Type1/UTI_____.afm'
p1067
aS'/usr/share/fonts/urw-fonts/a010015l.afm'
p1068
aS'/usr/share/fonts/urw-fonts/n021024l.afm'
p1069
aS'/usr/share/fonts/urw-fonts/a010013l.afm'
p1070
aS'/usr/share/fonts/urw-fonts/a010033l.afm'
p1071
aS'/usr/share/fonts/urw-fonts/n019023l.afm'
p1072
aS'/usr/share/fonts/urw-fonts/n021003l.afm'
p1073
aS'/usr/share/fonts/urw-fonts/p052023l.afm'
p1074
aS'/usr/share/fonts/urw-fonts/p052024l.afm'
p1075
asS'afmlist'
p1076
(lp1077
g7
(g8
g9
NtRp1078
(dp1079
g12
g18
sg14
S'Helvetica'
p1080
sg16
I200
sg17
g18
sg19
g18
sg20
g951
sg22
g23
sbag7
(g8
g9
NtRp1081
(dp1082
g12
g13
sg14
S'New Century Schoolbook'
p1083
sg16
I700
sg17
g18
sg19
g18
sg20
g954
sg22
g23
sbag7
(g8
g9
NtRp1084
(dp1085
g12
g18
sg14
S'Helvetica'
p1086
sg16
I700
sg17
g18
sg19
g18
sg20
g955
sg22
g23
sbag7
(g8
g9
NtRp1087
(dp1088
g12
g18
sg14
S'Times'
p1089
sg16
I500
sg17
g18
sg19
g18
sg20
g956
sg22
g23
sbag7
(g8
g9
NtRp1090
(dp1091
g12
g18
sg14
S'Palatino'
p1092
sg16
I700
sg17
g18
sg19
g18
sg20
g957
sg22
g23
sbag7
(g8
g9
NtRp1093
(dp1094
g12
g13
sg14
S'Utopia'
p1095
sg16
I700
sg17
g18
sg19
g18
sg20
g958
sg22
g23
sbag7
(g8
g9
NtRp1096
(dp1097
g12
g18
sg14
S'New Century Schoolbook'
p1098
sg16
I700
sg17
g18
sg19
g18
sg20
g959
sg22
g23
sbag7
(g8
g9
NtRp1099
(dp1100
g12
g13
sg14
S'Courier'
p1101
sg16
I500
sg17
g18
sg19
g18
sg20
g960
sg22
g23
sbag7
(g8
g9
NtRp1102
(dp1103
g12
g13
sg14
S'Helvetica'
p1104
sg16
I700
sg17
g18
sg19
g18
sg20
g961
sg22
g23
sbag7
(g8
g9
NtRp1105
(dp1106
g12
g13
sg14
S'Times'
p1107
sg16
I700
sg17
g18
sg19
g18
sg20
g962
sg22
g23
sbag7
(g8
g9
NtRp1108
(dp1109
g12
g13
sg14
S'Times'
p1110
sg16
I500
sg17
g18
sg19
g18
sg20
g963
sg22
g23
sbag7
(g8
g9
NtRp1111
(dp1112
g12
g18
sg14
S'Symbol'
p1113
sg16
I500
sg17
g18
sg19
g18
sg20
g964
sg22
g23
sbag7
(g8
g9
NtRp1114
(dp1115
g12
g18
sg14
S'Helvetica'
p1116
sg16
I500
sg17
g18
sg19
g18
sg20
g965
sg22
g23
sbag7
(g8
g9
NtRp1117
(dp1118
g12
g13
sg14
S'Utopia'
p1119
sg16
I400
sg17
g18
sg19
g18
sg20
g966
sg22
g23
sbag7
(g8
g9
NtRp1120
(dp1121
g12
g18
sg14
S'Palatino'
p1122
sg16
I500
sg17
g18
sg19
g18
sg20
g967
sg22
g23
sbag7
(g8
g9
NtRp1123
(dp1124
g12
g18
sg14
S'Helvetica'
p1125
sg16
I500
sg17
g18
sg19
g18
sg20
g968
sg22
g23
sbag7
(g8
g9
NtRp1126
(dp1127
g12
g18
sg14
S'Times'
p1128
sg16
I700
sg17
g18
sg19
g18
sg20
g969
sg22
g23
sbag7
(g8
g9
NtRp1129
(dp1130
g12
g18
sg14
S'ITC Bookman'
p1131
sg16
I600
sg17
g18
sg19
g18
sg20
g970
sg22
g23
sbag7
(g8
g9
NtRp1132
(dp1133
g12
g13
sg14
S'Times'
p1134
sg16
I700
sg17
g18
sg19
g18
sg20
g971
sg22
g23
sbag7
(g8
g9
NtRp1135
(dp1136
g12
g18
sg14
S'Courier'
p1137
sg16
I500
sg17
g18
sg19
g18
sg20
g972
sg22
g23
sbag7
(g8
g9
NtRp1138
(dp1139
g12
g13
sg14
S'ITC Avant Garde Gothic'
p1140
sg16
I600
sg17
g18
sg19
g18
sg20
g973
sg22
g23
sbag7
(g8
g9
NtRp1141
(dp1142
g12
g18
sg14
S'Courier'
p1143
sg16
I500
sg17
g18
sg19
g18
sg20
g974
sg22
g23
sbag7
(g8
g9
NtRp1144
(dp1145
g12
g13
sg14
S'Courier'
p1146
sg16
I700
sg17
g18
sg19
g18
sg20
g975
sg22
g23
sbag7
(g8
g9
NtRp1147
(dp1148
g12
g13
sg14
S'Helvetica'
p1149
sg16
I500
sg17
g18
sg19
g18
sg20
g976
sg22
g23
sbag7
(g8
g9
NtRp1150
(dp1151
g12
g13
sg14
S'Courier'
p1152
sg16
I700
sg17
g18
sg19
g18
sg20
g977
sg22
g23
sbag7
(g8
g9
NtRp1153
(dp1154
g12
g18
sg14
S'Courier'
p1155
sg16
I700
sg17
g18
sg19
g18
sg20
g978
sg22
g23
sbag7
(g8
g9
NtRp1156
(dp1157
g12
g18
sg14
S'Times'
p1158
sg16
I700
sg17
g18
sg19
g18
sg20
g979
sg22
g23
sbag7
(g8
g9
NtRp1159
(dp1160
g12
g18
sg14
S'Times'
p1161
sg16
I500
sg17
g18
sg19
g18
sg20
g980
sg22
g23
sbag7
(g8
g9
NtRp1162
(dp1163
g12
g13
sg14
S'Helvetica'
p1164
sg16
I200
sg17
g18
sg19
g18
sg20
g981
sg22
g23
sbag7
(g8
g9
NtRp1165
(dp1166
g12
g18
sg14
S'Utopia'
p1167
sg16
I700
sg17
g18
sg19
g18
sg20
g982
sg22
g23
sbag7
(g8
g9
NtRp1168
(dp1169
g12
g13
sg14
S'Computer Modern'
p1170
sg16
I500
sg17
g18
sg19
g18
sg20
g983
sg22
g23
sbag7
(g8
g9
NtRp1171
(dp1172
g12
g13
sg14
S'Helvetica'
p1173
sg16
I500
sg17
g172
sg19
g18
sg20
g984
sg22
g23
sbag7
(g8
g9
NtRp1174
(dp1175
g12
g13
sg14
S'ITC Zapf Chancery'
p1176
sg16
I500
sg17
g18
sg19
g18
sg20
g985
sg22
g23
sbag7
(g8
g9
NtRp1177
(dp1178
g12
g18
sg14
S'Symbol'
p1179
sg16
I500
sg17
g18
sg19
g18
sg20
g986
sg22
g23
sbag7
(g8
g9
NtRp1180
(dp1181
g12
g18
sg14
S'Helvetica'
p1182
sg16
I700
sg17
g18
sg19
g18
sg20
g987
sg22
g23
sbag7
(g8
g9
NtRp1183
(dp1184
g12
g13
sg14
S'Palatino'
p1185
sg16
I700
sg17
g18
sg19
g18
sg20
g988
sg22
g23
sbag7
(g8
g9
NtRp1186
(dp1187
g12
g13
sg14
S'Times'
p1188
sg16
I500
sg17
g18
sg19
g18
sg20
g989
sg22
g23
sbag7
(g8
g9
NtRp1189
(dp1190
g12
g18
sg14
S'ZapfDingbats'
p1191
sg16
I500
sg17
g18
sg19
g18
sg20
g990
sg22
g23
sbag7
(g8
g9
NtRp1192
(dp1193
g12
g13
sg14
S'ITC Bookman'
p1194
sg16
I200
sg17
g18
sg19
g18
sg20
g991
sg22
g23
sbag7
(g8
g9
NtRp1195
(dp1196
g12
g13
sg14
S'Helvetica'
p1197
sg16
I700
sg17
g172
sg19
g18
sg20
g992
sg22
g23
sbag7
(g8
g9
NtRp1198
(dp1199
g12
g18
sg14
S'Utopia'
p1200
sg16
I400
sg17
g18
sg19
g18
sg20
g993
sg22
g23
sbag7
(g8
g9
NtRp1201
(dp1202
g12
g18
sg14
S'ITC Zapf Dingbats'
p1203
sg16
I500
sg17
g18
sg19
g18
sg20
g994
sg22
g23
sbag7
(g8
g9
NtRp1204
(dp1205
g12
g13
sg14
S'Computer Modern'
p1206
sg16
I500
sg17
g18
sg19
g18
sg20
g995
sg22
g23
sbag7
(g8
g9
NtRp1207
(dp1208
g12
g13
sg14
S'ITC Avant Garde Gothic'
p1209
sg16
I400
sg17
g18
sg19
g18
sg20
g996
sg22
g23
sbag7
(g8
g9
NtRp1210
(dp1211
g12
g18
sg14
S'ITC Bookman'
p1212
sg16
I200
sg17
g18
sg19
g18
sg20
g997
sg22
g23
sbag7
(g8
g9
NtRp1213
(dp1214
g12
g18
sg14
S'New Century Schoolbook'
p1215
sg16
I500
sg17
g18
sg19
g18
sg20
g998
sg22
g23
sbag7
(g8
g9
NtRp1216
(dp1217
g12
g18
sg14
S'Computer Modern'
p1218
sg16
I500
sg17
g18
sg19
g18
sg20
g999
sg22
g23
sbag7
(g8
g9
NtRp1219
(dp1220
g12
g18
sg14
S'ITC Avant Garde Gothic'
p1221
sg16
I400
sg17
g18
sg19
g18
sg20
g1000
sg22
g23
sbag7
(g8
g9
NtRp1222
(dp1223
g12
g13
sg14
S'Courier'
p1224
sg16
I500
sg17
g18
sg19
g18
sg20
g1001
sg22
g23
sbag7
(g8
g9
NtRp1225
(dp1226
g12
g18
sg14
S'Helvetica'
p1227
sg16
I500
sg17
g172
sg19
g18
sg20
g1002
sg22
g23
sbag7
(g8
g9
NtRp1228
(dp1229
g12
g18
sg14
S'Computer Modern'
p1230
sg16
I500
sg17
g18
sg19
g18
sg20
g1003
sg22
g23
sbag7
(g8
g9
NtRp1231
(dp1232
g12
g13
sg14
S'ITC Bookman'
p1233
sg16
I600
sg17
g18
sg19
g18
sg20
g1004
sg22
g23
sbag7
(g8
g9
NtRp1234
(dp1235
g12
g13
sg14
S'New Century Schoolbook'
p1236
sg16
I500
sg17
g18
sg19
g18
sg20
g1005
sg22
g23
sbag7
(g8
g9
NtRp1237
(dp1238
g12
g13
sg14
S'Helvetica'
p1239
sg16
I500
sg17
g18
sg19
g18
sg20
g1006
sg22
g23
sbag7
(g8
g9
NtRp1240
(dp1241
g12
g13
sg14
S'Helvetica'
p1242
sg16
I700
sg17
g18
sg19
g18
sg20
g1007
sg22
g23
sbag7
(g8
g9
NtRp1243
(dp1244
g12
g13
sg14
S'Palatino'
p1245
sg16
I500
sg17
g18
sg19
g18
sg20
g1008
sg22
g23
sbag7
(g8
g9
NtRp1246
(dp1247
g12
g18
sg14
S'Courier'
p1248
sg16
I700
sg17
g18
sg19
g18
sg20
g1009
sg22
g23
sbag7
(g8
g9
NtRp1249
(dp1250
g12
g18
sg14
S'Helvetica'
p1251
sg16
I700
sg17
g172
sg19
g18
sg20
g1010
sg22
g23
sbag7
(g8
g9
NtRp1252
(dp1253
g12
g18
sg14
S'ITC Avant Garde Gothic'
p1254
sg16
I600
sg17
g18
sg19
g18
sg20
g1011
sg22
g23
sbag7
(g8
g9
NtRp1255
(dp1256
g12
g18
sg14
S'Computer Modern'
p1257
sg16
I500
sg17
g18
sg19
g18
sg20
g1012
sg22
g23
sbag7
(g8
g9
NtRp1258
(dp1259
g12
g18
sg14
S'Nimbus Sans L'
p1260
sg16
I700
sg17
g172
sg19
g18
sg20
g1013
sg22
g23
sbag7
(g8
g9
NtRp1261
(dp1262
g12
g13
sg14
S'Nimbus Sans L'
p1263
sg16
I700
sg17
g172
sg19
g18
sg20
g1014
sg22
g23
sbag7
(g8
g9
NtRp1264
(dp1265
g12
g18
sg14
S'Courier'
p1266
sg16
I400
sg17
g18
sg19
g18
sg20
g1015
sg22
g23
sbag7
(g8
g9
NtRp1267
(dp1268
g12
g18
sg14
S'Luxi Serif'
p1269
sg16
I700
sg17
g18
sg19
g18
sg20
g1016
sg22
g23
sbag7
(g8
g9
NtRp1270
(dp1271
g12
g13
sg14
S'Luxi Sans'
p1272
sg16
I700
sg17
g18
sg19
g18
sg20
g1017
sg22
g23
sbag7
(g8
g9
NtRp1273
(dp1274
g12
g13
sg14
S'Luxi Sans'
p1275
sg16
I400
sg17
g18
sg19
g18
sg20
g1018
sg22
g23
sbag7
(g8
g9
NtRp1276
(dp1277
g12
g18
sg14
S'Luxi Sans'
p1278
sg16
I700
sg17
g18
sg19
g18
sg20
g1019
sg22
g23
sbag7
(g8
g9
NtRp1279
(dp1280
g12
g18
sg14
S'Luxi Serif'
p1281
sg16
I400
sg17
g18
sg19
g18
sg20
g1020
sg22
g23
sbag7
(g8
g9
NtRp1282
(dp1283
g12
g13
sg14
S'URW Bookman L'
p1284
sg16
I400
sg17
g18
sg19
g18
sg20
g1021
sg22
g23
sbag7
(g8
g9
NtRp1285
(dp1286
g12
g18
sg14
S'URW Palladio L'
p1287
sg16
I700
sg17
g18
sg19
g18
sg20
g1022
sg22
g23
sbag7
(g8
g9
NtRp1288
(dp1289
g12
g13
sg14
S'Courier'
p1290
sg16
I700
sg17
g18
sg19
g18
sg20
g1023
sg22
g23
sbag7
(g8
g9
NtRp1291
(dp1292
g12
g18
sg14
S'Nimbus Sans L'
p1293
sg16
I700
sg17
g18
sg19
g18
sg20
g1024
sg22
g23
sbag7
(g8
g9
NtRp1294
(dp1295
g12
g18
sg14
S'Nimbus Sans L'
p1296
sg16
I400
sg17
g172
sg19
g18
sg20
g1025
sg22
g23
sbag7
(g8
g9
NtRp1297
(dp1298
g12
g18
sg14
S'Bitstream Charter'
p1299
sg16
I700
sg17
g18
sg19
g18
sg20
g1026
sg22
g23
sbag7
(g8
g9
NtRp1300
(dp1301
g12
g18
sg14
S'Nimbus Sans L'
p1302
sg16
I400
sg17
g18
sg19
g18
sg20
g1027
sg22
g23
sbag7
(g8
g9
NtRp1303
(dp1304
g12
g18
sg14
S'Luxi Mono'
p1305
sg16
I400
sg17
g18
sg19
g18
sg20
g1028
sg22
g23
sbag7
(g8
g9
NtRp1306
(dp1307
g12
g13
sg14
S'Luxi Serif'
p1308
sg16
I400
sg17
g18
sg19
g18
sg20
g1029
sg22
g23
sbag7
(g8
g9
NtRp1309
(dp1310
g12
g13
sg14
S'Courier 10 Pitch'
p1311
sg16
I700
sg17
g18
sg19
g18
sg20
g1030
sg22
g23
sbag7
(g8
g9
NtRp1312
(dp1313
g12
g13
sg14
S'Nimbus Sans L'
p1314
sg16
I700
sg17
g18
sg19
g18
sg20
g1031
sg22
g23
sbag7
(g8
g9
NtRp1315
(dp1316
g12
g18
sg14
S'Luxi Mono'
p1317
sg16
I700
sg17
g18
sg19
g18
sg20
g1032
sg22
g23
sbag7
(g8
g9
NtRp1318
(dp1319
g12
g13
sg14
S'Luxi Mono'
p1320
sg16
I400
sg17
g18
sg19
g18
sg20
g1033
sg22
g23
sbag7
(g8
g9
NtRp1321
(dp1322
g12
g13
sg14
S'Luxi Mono'
p1323
sg16
I700
sg17
g18
sg19
g18
sg20
g1034
sg22
g23
sbag7
(g8
g9
NtRp1324
(dp1325
g12
g13
sg14
S'Nimbus Mono L'
p1326
sg16
I400
sg17
g18
sg19
g18
sg20
g1035
sg22
g23
sbag7
(g8
g9
NtRp1327
(dp1328
g12
g13
sg14
S'Utopia'
p1329
sg16
I700
sg17
g18
sg19
g18
sg20
g1036
sg22
g23
sbag7
(g8
g9
NtRp1330
(dp1331
g12
g13
sg14
S'Courier'
p1332
sg16
I400
sg17
g18
sg19
g18
sg20
g1037
sg22
g23
sbag7
(g8
g9
NtRp1333
(dp1334
g12
g18
sg14
S'URW Bookman L'
p1335
sg16
I400
sg17
g18
sg19
g18
sg20
g1038
sg22
g23
sbag7
(g8
g9
NtRp1336
(dp1337
g12
g18
sg14
S'Dingbats'
p1338
sg16
I400
sg17
g18
sg19
g18
sg20
g1039
sg22
g23
sbag7
(g8
g9
NtRp1339
(dp1340
g12
g13
sg14
S'Century Schoolbook L'
p1341
sg16
I700
sg17
g18
sg19
g18
sg20
g1040
sg22
g23
sbag7
(g8
g9
NtRp1342
(dp1343
g12
g18
sg14
S'Nimbus Roman No9 L'
p1344
sg16
I700
sg17
g18
sg19
g18
sg20
g1041
sg22
g23
sbag7
(g8
g9
NtRp1345
(dp1346
g12
g13
sg14
S'Nimbus Roman No9 L'
p1347
sg16
I400
sg17
g18
sg19
g18
sg20
g1042
sg22
g23
sbag7
(g8
g9
NtRp1348
(dp1349
g12
g18
sg14
S'URW Palladio L'
p1350
sg16
I500
sg17
g18
sg19
g18
sg20
g1043
sg22
g23
sbag7
(g8
g9
NtRp1351
(dp1352
g12
g18
sg14
S'Courier 10 Pitch'
p1353
sg16
I700
sg17
g18
sg19
g18
sg20
g1044
sg22
g23
sbag7
(g8
g9
NtRp1354
(dp1355
g12
g13
sg14
S'Nimbus Sans L'
p1356
sg16
I400
sg17
g172
sg19
g18
sg20
g1045
sg22
g23
sbag7
(g8
g9
NtRp1357
(dp1358
g12
g18
sg14
S'URW Bookman L'
p1359
sg16
I700
sg17
g18
sg19
g18
sg20
g1046
sg22
g23
sbag7
(g8
g9
NtRp1360
(dp1361
g12
g13
sg14
S'Bitstream Charter'
p1362
sg16
I700
sg17
g18
sg19
g18
sg20
g1047
sg22
g23
sbag7
(g8
g9
NtRp1363
(dp1364
g12
g13
sg14
S'URW Chancery L'
p1365
sg16
I500
sg17
g18
sg19
g18
sg20
g1048
sg22
g23
sbag7
(g8
g9
NtRp1366
(dp1367
g12
g18
sg14
S'Bitstream Charter'
p1368
sg16
I400
sg17
g18
sg19
g18
sg20
g1049
sg22
g23
sbag7
(g8
g9
NtRp1369
(dp1370
g12
g18
sg14
S'Century Schoolbook L'
p1371
sg16
I500
sg17
g18
sg19
g18
sg20
g1050
sg22
g23
sbag7
(g8
g9
NtRp1372
(dp1373
g12
g13
sg14
S'Century Schoolbook L'
p1374
sg16
I400
sg17
g18
sg19
g18
sg20
g1051
sg22
g23
sbag7
(g8
g9
NtRp1375
(dp1376
g12
g13
sg14
S'Luxi Serif'
p1377
sg16
I700
sg17
g18
sg19
g18
sg20
g1052
sg22
g23
sbag7
(g8
g9
NtRp1378
(dp1379
g12
g13
sg14
S'Bitstream Charter'
p1380
sg16
I400
sg17
g18
sg19
g18
sg20
g1053
sg22
g23
sbag7
(g8
g9
NtRp1381
(dp1382
g12
g18
sg14
S'Nimbus Mono L'
p1383
sg16
I400
sg17
g18
sg19
g18
sg20
g1054
sg22
g23
sbag7
(g8
g9
NtRp1384
(dp1385
g12
g18
sg14
S'Century Schoolbook L'
p1386
sg16
I700
sg17
g18
sg19
g18
sg20
g1055
sg22
g23
sbag7
(g8
g9
NtRp1387
(dp1388
g12
g13
sg14
S'Courier 10 Pitch'
p1389
sg16
I400
sg17
g18
sg19
g18
sg20
g1056
sg22
g23
sbag7
(g8
g9
NtRp1390
(dp1391
g12
g18
sg14
S'Utopia'
p1392
sg16
I400
sg17
g18
sg19
g18
sg20
g1057
sg22
g23
sbag7
(g8
g9
NtRp1393
(dp1394
g12
g18
sg14
S'Luxi Sans'
p1395
sg16
I400
sg17
g18
sg19
g18
sg20
g1058
sg22
g23
sbag7
(g8
g9
NtRp1396
(dp1397
g12
g13
sg14
S'URW Bookman L'
p1398
sg16
I700
sg17
g18
sg19
g18
sg20
g1059
sg22
g23
sbag7
(g8
g9
NtRp1399
(dp1400
g12
g18
sg14
S'Utopia'
p1401
sg16
I700
sg17
g18
sg19
g18
sg20
g1060
sg22
g23
sbag7
(g8
g9
NtRp1402
(dp1403
g12
g18
sg14
S'Courier'
p1404
sg16
I700
sg17
g18
sg19
g18
sg20
g1061
sg22
g23
sbag7
(g8
g9
NtRp1405
(dp1406
g12
g13
sg14
S'Nimbus Mono L'
p1407
sg16
I700
sg17
g18
sg19
g18
sg20
g1062
sg22
g23
sbag7
(g8
g9
NtRp1408
(dp1409
g12
g18
sg14
S'Standard Symbols L'
p1410
sg16
I400
sg17
g18
sg19
g18
sg20
g1063
sg22
g23
sbag7
(g8
g9
NtRp1411
(dp1412
g12
g18
sg14
S'Nimbus Mono L'
p1413
sg16
I700
sg17
g18
sg19
g18
sg20
g1064
sg22
g23
sbag7
(g8
g9
NtRp1414
(dp1415
g12
g13
sg14
S'URW Gothic L'
p1416
sg16
I600
sg17
g18
sg19
g18
sg20
g1065
sg22
g23
sbag7
(g8
g9
NtRp1417
(dp1418
g12
g18
sg14
S'Courier 10 Pitch'
p1419
sg16
I400
sg17
g18
sg19
g18
sg20
g1066
sg22
g23
sbag7
(g8
g9
NtRp1420
(dp1421
g12
g13
sg14
S'Utopia'
p1422
sg16
I400
sg17
g18
sg19
g18
sg20
g1067
sg22
g23
sbag7
(g8
g9
NtRp1423
(dp1424
g12
g18
sg14
S'URW Gothic L'
p1425
sg16
I600
sg17
g18
sg19
g18
sg20
g1068
sg22
g23
sbag7
(g8
g9
NtRp1426
(dp1427
g12
g13
sg14
S'Nimbus Roman No9 L'
p1428
sg16
I700
sg17
g18
sg19
g18
sg20
g1069
sg22
g23
sbag7
(g8
g9
NtRp1429
(dp1430
g12
g18
sg14
S'URW Gothic L'
p1431
sg16
I400
sg17
g18
sg19
g18
sg20
g1070
sg22
g23
sbag7
(g8
g9
NtRp1432
(dp1433
g12
g13
sg14
S'URW Gothic L'
p1434
sg16
I400
sg17
g18
sg19
g18
sg20
g1071
sg22
g23
sbag7
(g8
g9
NtRp1435
(dp1436
g12
g13
sg14
S'Nimbus Sans L'
p1437
sg16
I400
sg17
g18
sg19
g18
sg20
g1072
sg22
g23
sbag7
(g8
g9
NtRp1438
(dp1439
g12
g18
sg14
S'Nimbus Roman No9 L'
p1440
sg16
I400
sg17
g18
sg19
g18
sg20
g1073
sg22
g23
sbag7
(g8
g9
NtRp1441
(dp1442
g12
g13
sg14
S'URW Palladio L'
p1443
sg16
I400
sg17
g18
sg19
g18
sg20
g1074
sg22
g23
sbag7
(g8
g9
NtRp1444
(dp1445
g12
g13
sg14
S'URW Palladio L'
p1446
sg16
I700
sg17
g18
sg19
g18
sg20
g1075
sg22
g23
sbasb.